	.cpu cortex-m4
	.arch armv7e-m
	.fpu softvfp
	.eabi_attribute 20, 1
	.eabi_attribute 21, 1
	.eabi_attribute 23, 3
	.eabi_attribute 24, 1
	.eabi_attribute 25, 1
	.eabi_attribute 26, 1
	.eabi_attribute 30, 1
	.eabi_attribute 34, 1
	.eabi_attribute 18, 4
	.file	"error.c"
	.text
.Ltext0:
	.cfi_sections	.debug_frame
	.section	.rodata.mbedtls_high_level_strerr.str1.4,"aMS",%progbits,1
	.align	2
.LC0:
	.ascii	"SSL - An operation failed due to an unexpected vers"
	.ascii	"ion or configuration\000"
	.align	2
.LC1:
	.ascii	"CIPHER - The context is invalid. For example, becau"
	.ascii	"se it was freed\000"
	.align	2
.LC2:
	.ascii	"CIPHER - Decryption of block requires a full block\000"
	.align	2
.LC3:
	.ascii	"CIPHER - Failed to allocate memory\000"
	.align	2
.LC4:
	.ascii	"CIPHER - The selected feature is not available\000"
	.align	2
.LC5:
	.ascii	"CIPHER - Input data contains invalid padding and is"
	.ascii	" rejected\000"
	.align	2
.LC6:
	.ascii	"PKCS7 - The PKCS #7 date issued/expired dates are i"
	.ascii	"nvalid\000"
	.align	2
.LC7:
	.ascii	"X509 - A fatal error occurred, eg the chain is too "
	.ascii	"long or the vrfy callback failed\000"
	.align	2
.LC8:
	.ascii	"ECP - The signature is not valid\000"
	.align	2
.LC9:
	.ascii	"DHM - Making of the public value failed\000"
	.align	2
.LC10:
	.ascii	"DHM - Making of the DHM parameters failed\000"
	.align	2
.LC11:
	.ascii	"DHM - The ASN.1 data is not formatted correctly\000"
	.align	2
.LC12:
	.ascii	"DHM - Reading of the public values failed\000"
	.align	2
.LC13:
	.ascii	"PK - The buffer contains a valid signature followed"
	.ascii	" by more data\000"
	.align	2
.LC14:
	.ascii	"DHM - Setting the modulus and generator failed\000"
	.align	2
.LC15:
	.ascii	"DHM - Allocation of memory failed\000"
	.align	2
.LC16:
	.ascii	"DHM - Calculation of the DHM secret failed\000"
	.align	2
.LC17:
	.ascii	"MD - Bad input parameters to function\000"
	.align	2
.LC18:
	.ascii	"ECP - The requested feature is not available, for e"
	.ascii	"xample, the requested curve is not supported\000"
	.align	2
.LC19:
	.ascii	"ECP - Bad input parameters to function\000"
	.align	2
.LC20:
	.ascii	"ECP - Generation of random value, such as ephemeral"
	.ascii	" key, failed\000"
	.align	2
.LC21:
	.ascii	"ECP - Operation in progress, call again with the sa"
	.ascii	"me parameters to continue\000"
	.align	2
.LC22:
	.ascii	"ECP - Memory allocation failed\000"
	.align	2
.LC23:
	.ascii	"RSA - The public key operation failed\000"
	.align	2
.LC24:
	.ascii	"RSA - The output buffer for decryption is not large"
	.ascii	" enough\000"
	.align	2
.LC25:
	.ascii	"ECP - The buffer is too small to write to\000"
	.align	2
.LC26:
	.ascii	"PKCS7 - The PKCS #7 version element is invalid or c"
	.ascii	"annot be parsed\000"
	.align	2
.LC27:
	.ascii	"PKCS7 - The format is invalid, e.g. different type "
	.ascii	"expected\000"
	.align	2
.LC28:
	.ascii	"MD - Failed to allocate memory\000"
	.align	2
.LC29:
	.ascii	"PEM - Failed to allocate memory\000"
	.align	2
.LC30:
	.ascii	"PEM - No PEM header or footer found\000"
	.align	2
.LC31:
	.ascii	"PEM - Unsupported key encryption algorithm\000"
	.align	2
.LC32:
	.ascii	"PEM - PEM string is not as expected\000"
	.align	2
.LC33:
	.ascii	"PKCS12 - Given private key password does not allow "
	.ascii	"for correct decryption\000"
	.align	2
.LC34:
	.ascii	"PEM - Unavailable feature, e.g. hashing/encryption "
	.ascii	"combination\000"
	.align	2
.LC35:
	.ascii	"PEM - Private key password can't be empty\000"
	.align	2
.LC36:
	.ascii	"PEM - RSA IV is not in hex-format\000"
	.align	2
.LC37:
	.ascii	"PEM - Given private key password does not allow for"
	.ascii	" correct decryption\000"
	.align	2
.LC38:
	.ascii	"PK - Bad input parameters to function\000"
	.align	2
.LC39:
	.ascii	"RSA - Bad input parameters to function\000"
	.align	2
.LC40:
	.ascii	"PK - Read/write of file failed\000"
	.align	2
.LC41:
	.ascii	"PK - Type mismatch, eg attempt to encrypt with an E"
	.ascii	"CDSA key\000"
	.align	2
.LC42:
	.ascii	"PKCS5 - Bad input parameters to function\000"
	.align	2
.LC43:
	.ascii	"PK - Key algorithm is unsupported (only RSA and EC "
	.ascii	"are supported)\000"
	.align	2
.LC44:
	.ascii	"PK - The pubkey tag or value is invalid (only RSA a"
	.ascii	"nd EC are supported)\000"
	.align	2
.LC45:
	.ascii	"PK - Invalid key tag or value\000"
	.align	2
.LC46:
	.ascii	"PK - The output buffer is too small\000"
	.align	2
.LC47:
	.ascii	"PK - Elliptic curve is unsupported (only NIST curve"
	.ascii	"s are supported)\000"
	.align	2
.LC48:
	.ascii	"PK - Given private key password does not allow for "
	.ascii	"correct decryption\000"
	.align	2
.LC49:
	.ascii	"PK - Unavailable feature, e.g. RSA disabled for RSA"
	.ascii	" key\000"
	.align	2
.LC50:
	.ascii	"PK - The algorithm tag or value is invalid\000"
	.align	2
.LC51:
	.ascii	"PK - Unsupported key version\000"
	.align	2
.LC52:
	.ascii	"DHM - Read or write of file failed\000"
	.align	2
.LC53:
	.ascii	"X509 - Requested OID is unknown\000"
	.align	2
.LC54:
	.ascii	"PKCS12 - PBE ASN.1 data not as expected\000"
	.align	2
.LC55:
	.ascii	"PKCS12 - Bad input parameters to function\000"
	.align	2
.LC56:
	.ascii	"X509 - The name tag or value is invalid\000"
	.align	2
.LC57:
	.ascii	"DHM - Bad input parameters\000"
	.align	2
.LC58:
	.ascii	"X509 - Input invalid\000"
	.align	2
.LC59:
	.ascii	"X509 - Destination buffer is too small\000"
	.align	2
.LC60:
	.ascii	"PKCS5 - Unexpected ASN.1 data\000"
	.align	2
.LC61:
	.ascii	"MD - The selected feature is not available\000"
	.align	2
.LC62:
	.ascii	"MD - Opening or reading of file failed\000"
	.align	2
.LC63:
	.ascii	"SSL - Attempt to verify a certificate without an ex"
	.ascii	"pected hostname. This is usually insecure.  In TLS "
	.ascii	"clients, when a client authenticates a server throu"
	.ascii	"gh its certificate, the client normally checks thre"
	.ascii	"e things: - the certificate chain must be valid; - "
	.ascii	"the chain must start from a trusted CA; - the certi"
	.ascii	"ficate must cover the server name that is expected "
	.ascii	"by the client.  Omitting any of these checks is gen"
	.ascii	"erally insecure, and can allow a malicious server t"
	.ascii	"o impersonate a legitimate server.  The third check"
	.ascii	" may be safely skipped in some unusual scenarios, s"
	.ascii	"uch as networks where eavesdropping is a risk but n"
	.ascii	"ot active attacks, or a private PKI where the clien"
	.ascii	"t equally trusts all servers that are accredited by"
	.ascii	" the root CA.  You should call mbedtls_ssl_set_host"
	.ascii	"name() with the expected server name before startin"
	.ascii	"g a TLS handshake on a client (unless the client is"
	.ascii	" set up to only use PSK-based authentication, which"
	.ascii	" does not rely on the host name). If you have deter"
	.ascii	"mined that server name verification is not required"
	.ascii	" for security in your scenario, call mbedtls_ssl_se"
	.ascii	"t_hostname() with \\p NULL as the server name.  Thi"
	.ascii	"s error is raised if all of the following condition"
	.ascii	"s are met:  - A TLS client is configured with the a"
	.ascii	"uthentication mode #MBEDTLS_SSL_VERIFY_REQUIRED (de"
	.ascii	"fault). - Certificate authentication is enabled. - "
	.ascii	"The client does not call mbedtls_ssl_set_hostname()"
	.ascii	". - The configuration option #MBEDTLS_SSL_CLI_ALLOW"
	.ascii	"_WEAK_CERTIFICATE_VERIFICATION_WITHOUT_HOSTNAME is "
	.ascii	"not enabled\000"
	.align	2
.LC64:
	.ascii	"PKCS7 - The certificate tag or value is invalid or "
	.ascii	"cannot be parsed\000"
	.align	2
.LC65:
	.ascii	"PKCS7 - The PKCS #7 content info is invalid or cann"
	.ascii	"ot be parsed\000"
	.align	2
.LC66:
	.ascii	"PKCS7 - Error parsing the signer's info\000"
	.align	2
.LC67:
	.ascii	"PKCS7 - The algorithm tag or value is invalid or ca"
	.ascii	"nnot be parsed\000"
	.align	2
.LC68:
	.ascii	"PKCS7 - Unavailable feature, e.g. anything other th"
	.ascii	"an signed data\000"
	.align	2
.LC69:
	.ascii	"PKCS7 - Verification Failed\000"
	.align	2
.LC70:
	.ascii	"PKCS7 - Input invalid\000"
	.align	2
.LC71:
	.ascii	"PKCS7 - Error parsing the signature\000"
	.align	2
.LC72:
	.ascii	"PKCS7 - Allocation of memory failed\000"
	.align	2
.LC73:
	.ascii	"RSA - The private key operation failed\000"
	.align	2
.LC74:
	.ascii	"RSA - Key failed to pass the validity check of the "
	.ascii	"library\000"
	.align	2
.LC75:
	.ascii	"RSA - Input data contains invalid padding and is re"
	.ascii	"jected\000"
	.align	2
.LC76:
	.ascii	"PK - Memory allocation failed\000"
	.align	2
.LC77:
	.ascii	"RSA - Something failed during generation of a key\000"
	.align	2
.LC78:
	.ascii	"PK - Private key password can't be empty\000"
	.align	2
.LC79:
	.ascii	"RSA - The random generator failed to generate non-z"
	.ascii	"eros\000"
	.align	2
.LC80:
	.ascii	"RSA - The PKCS#1 verification failed\000"
	.align	2
.LC81:
	.ascii	"ECP - The buffer contains a valid signature followe"
	.ascii	"d by more data\000"
	.align	2
.LC82:
	.ascii	"SSL - Bad input parameters to function\000"
	.align	2
.LC83:
	.ascii	"SSL - Hardware acceleration function skipped / left"
	.ascii	" alone data\000"
	.align	2
.LC84:
	.ascii	"SSL - Session ticket has expired\000"
	.align	2
.LC85:
	.ascii	"SSL - The connection indicated an EOF\000"
	.align	2
.LC86:
	.ascii	"SSL - The requested feature is not available\000"
	.align	2
.LC87:
	.ascii	"SSL - An invalid SSL record was received\000"
	.align	2
.LC88:
	.ascii	"SSL - Record header looks valid but is not expected"
	.ascii	"\000"
	.align	2
.LC89:
	.ascii	"SSL - Client received an extended server hello cont"
	.ascii	"aining an unsupported extension\000"
	.align	2
.LC90:
	.ascii	"SSL - No RNG was provided to the SSL module\000"
	.align	2
.LC91:
	.ascii	"SSL - The own private key or pre-shared key is not "
	.ascii	"set, but needed\000"
	.align	2
.LC92:
	.ascii	"SSL - No client certification received from the cli"
	.ascii	"ent, but required by the authentication mode\000"
	.align	2
.LC93:
	.ascii	"SSL - The peer notified us that the connection is g"
	.ascii	"oing to be closed\000"
	.align	2
.LC94:
	.ascii	"SSL - A fatal alert message was received from our p"
	.ascii	"eer\000"
	.align	2
.LC95:
	.ascii	"SSL - No CA Chain is set, but required to operate\000"
	.align	2
.LC96:
	.ascii	"SSL - No ALPN protocols supported that the client a"
	.ascii	"dvertises\000"
	.align	2
.LC97:
	.ascii	"SSL - An unexpected message was received from our p"
	.ascii	"eer\000"
	.align	2
.LC98:
	.ascii	"SSL - Verification of the message MAC failed\000"
	.align	2
.LC99:
	.ascii	"SSL - Not possible to read early data\000"
	.align	2
.LC100:
	.ascii	"SSL - Processing of the Certificate handshake messa"
	.ascii	"ge failed\000"
	.align	2
.LC101:
	.ascii	"SSL - Not possible to write early data\000"
	.align	2
.LC102:
	.ascii	"SSL - A TLS 1.3 NewSessionTicket message has been r"
	.ascii	"eceived\000"
	.align	2
.LC103:
	.ascii	"SSL - No server could be identified matching the cl"
	.ascii	"ient's SNI\000"
	.align	2
.LC104:
	.ascii	"SSL - Hardware acceleration function returned with "
	.ascii	"error\000"
	.align	2
.LC105:
	.ascii	"SSL - * Early data has been received as part of an "
	.ascii	"on-going handshake. This error code can be returned"
	.ascii	" only on server side if and only if early data has "
	.ascii	"been enabled by means of the mbedtls_ssl_conf_early"
	.ascii	"_data() API. This error code can then be returned b"
	.ascii	"y mbedtls_ssl_handshake(), mbedtls_ssl_handshake_st"
	.ascii	"ep(), mbedtls_ssl_read() or mbedtls_ssl_write() if "
	.ascii	"early data has been received as part of the handsha"
	.ascii	"ke sequence they triggered. To read the early data,"
	.ascii	" call mbedtls_ssl_read_early_data()\000"
	.align	2
.LC106:
	.ascii	"SSL - Memory allocation failed\000"
	.align	2
.LC107:
	.ascii	"SSL - Handshake protocol not within min/max boundar"
	.ascii	"ies\000"
	.align	2
.LC108:
	.ascii	"SSL - A cryptographic operation is in progress. Try"
	.ascii	" again later\000"
	.align	2
.LC109:
	.ascii	"SSL - A message could not be parsed due to a syntac"
	.ascii	"tic error\000"
	.align	2
.LC110:
	.ascii	"SSL - Unknown identity received (eg, PSK identity)\000"
	.align	2
.LC111:
	.ascii	"SSL - Unexpected message at ServerHello in renegoti"
	.ascii	"ation\000"
	.align	2
.LC112:
	.ascii	"SSL - Internal error (eg, unexpected failure in low"
	.ascii	"er-level module)\000"
	.align	2
.LC113:
	.ascii	"SSL - Public key type mismatch (eg, asked for RSA k"
	.ascii	"ey exchange and presented EC key)\000"
	.align	2
.LC114:
	.ascii	"SSL - The handshake negotiation failed\000"
	.align	2
.LC115:
	.ascii	"SSL - A buffer is too small to receive or write a m"
	.ascii	"essage\000"
	.align	2
.LC116:
	.ascii	"SSL - A counter would wrap (eg, too many messages e"
	.ascii	"xchanged)\000"
	.align	2
.LC117:
	.ascii	"SSL - No data of requested type currently available"
	.ascii	" on underlying transport\000"
	.align	2
.LC118:
	.ascii	"SSL - DTLS client must retry for hello verification"
	.ascii	"\000"
	.align	2
.LC119:
	.ascii	"ECP - Invalid private or public key\000"
	.align	2
.LC120:
	.ascii	"SSL - The client initiated a reconnect from the sam"
	.ascii	"e port\000"
	.align	2
.LC121:
	.ascii	"SSL - A field in a message was incorrect or inconsi"
	.ascii	"stent with other fields\000"
	.align	2
.LC122:
	.ascii	"SSL - The operation timed out\000"
	.align	2
.LC123:
	.ascii	"CIPHER - Authentication failed (for AEAD modes)\000"
	.align	2
.LC124:
	.ascii	"SSL - The asynchronous operation is not completed y"
	.ascii	"et\000"
	.align	2
.LC125:
	.ascii	"SSL - The alert message received indicates a non-fa"
	.ascii	"tal error\000"
	.align	2
.LC126:
	.ascii	"SSL - Internal-only message signaling that a messag"
	.ascii	"e arrived early\000"
	.align	2
.LC127:
	.ascii	"SSL - Internal-only message signaling that further "
	.ascii	"message-processing should be done\000"
	.align	2
.LC128:
	.ascii	"CIPHER - Bad input parameters\000"
	.align	2
.LC129:
	.ascii	"SSL - Invalid value in SSL config\000"
	.align	2
.LC130:
	.ascii	"SSL - An encrypted DTLS-frame with an unexpected CI"
	.ascii	"D was received\000"
	.align	2
.LC131:
	.ascii	"SSL - Connection requires a write call\000"
	.align	2
.LC132:
	.ascii	"PKCS12 - Feature not available, e.g. unsupported en"
	.ascii	"cryption scheme\000"
	.align	2
.LC133:
	.ascii	"PEM - Bad input parameters to function\000"
	.align	2
.LC134:
	.ascii	"X509 - The serial tag or value is invalid\000"
	.align	2
.LC135:
	.ascii	"X509 - The CRT/CRL/CSR format is invalid, e.g. diff"
	.ascii	"erent type expected\000"
	.align	2
.LC136:
	.ascii	"X509 - Unavailable feature, e.g. RSA hashing/encryp"
	.ascii	"tion combination\000"
	.align	2
.LC137:
	.ascii	"X509 - The CRT/CRL/CSR version element is invalid\000"
	.align	2
.LC138:
	.ascii	"DHM - Reading of the DHM parameters failed\000"
	.align	2
.LC139:
	.ascii	"X509 - The extension tag or value is invalid\000"
	.align	2
.LC140:
	.ascii	"X509 - The date tag or value is invalid\000"
	.align	2
.LC141:
	.ascii	"X509 - Signature algorithm (oid) is unsupported\000"
	.align	2
.LC142:
	.ascii	"X509 - The signature tag or value invalid\000"
	.align	2
.LC143:
	.ascii	"X509 - Allocation of memory failed\000"
	.align	2
.LC144:
	.ascii	"X509 - Format not recognized as DER or PEM\000"
	.align	2
.LC145:
	.ascii	"X509 - Signature algorithms do not match. (see \\c "
	.ascii	"::mbedtls_x509_crt sig_oid)\000"
	.align	2
.LC146:
	.ascii	"X509 - CRT/CRL/CSR has an unsupported version numbe"
	.ascii	"r\000"
	.align	2
.LC147:
	.ascii	"X509 - Certificate verification failed, e.g. CRL, C"
	.ascii	"A or signature check failed\000"
	.align	2
.LC148:
	.ascii	"X509 - The algorithm tag or value is invalid\000"
	.align	2
.LC149:
	.ascii	"PKCS5 - Given private key password does not allow f"
	.ascii	"or correct decryption\000"
	.align	2
.LC150:
	.ascii	"X509 - Read/write of file failed\000"
	.align	2
.LC151:
	.ascii	"PKCS5 - Requested encryption or digest alg not avai"
	.ascii	"lable\000"
	.align	2
.LC152:
	.ascii	"SSL - Cache entry not found\000"
	.section	.text.mbedtls_high_level_strerr,"ax",%progbits
	.align	1
	.global	mbedtls_high_level_strerr
	.syntax unified
	.thumb
	.thumb_func
	.type	mbedtls_high_level_strerr, %function
mbedtls_high_level_strerr:
.LVL0:
.LFB100:
	.file 1 "/home/araujoj20/Documents/eclipse-rtd/mbedtls-f4/mbedtls/library/error.c"
	.loc 1 175 1 view -0
	.cfi_startproc
	@ args = 0, pretend = 0, frame = 0
	@ frame_needed = 0, uses_anonymous_args = 0
	@ link register save eliminated.
	.loc 1 176 5 view .LVU1
	.loc 1 178 5 view .LVU2
	.loc 1 178 8 is_stmt 0 view .LVU3
	cmp	r0, #0
	.loc 1 178 8 view .LVU4
	blt	.L214
.L2:
	.loc 1 183 5 is_stmt 1 view .LVU5
	.loc 1 183 27 is_stmt 0 view .LVU6
	bic	r0, r0, #127
.LVL1:
	.loc 1 183 27 view .LVU7
	lsls	r0, r0, #16
	lsrs	r0, r0, #16
.LVL2:
	.loc 1 185 5 is_stmt 1 view .LVU8
	cmp	r0, #19968
	beq	.L61
	bgt	.L4
	cmp	r0, #12544
	beq	.L62
	ble	.L215
	cmp	r0, #15744
	beq	.L101
	ble	.L216
	cmp	r0, #17152
	beq	.L120
	ble	.L217
	cmp	r0, #19456
	beq	.L130
	ble	.L218
	cmp	r0, #19712
	beq	.L135
	cmp	r0, #19840
	bne	.L219
	.loc 1 237 19 is_stmt 0 view .LVU9
	ldr	r0, .L277
.LVL3:
	.loc 1 237 19 view .LVU10
	bx	lr
.LVL4:
.L214:
	.loc 1 179 9 is_stmt 1 view .LVU11
	.loc 1 179 20 is_stmt 0 view .LVU12
	rsbs	r0, r0, #0
.LVL5:
	.loc 1 179 20 view .LVU13
	b	.L2
.LVL6:
.L215:
	.loc 1 185 5 view .LVU14
	cmp	r0, #9088
	beq	.L63
	ble	.L220
	cmp	r0, #10368
	beq	.L83
	ble	.L221
	cmp	r0, #12032
	beq	.L93
	ble	.L222
	cmp	r0, #12288
	beq	.L98
	cmp	r0, #12416
	bne	.L223
	.loc 1 206 19 view .LVU15
	ldr	r0, .L277+4
.LVL7:
	.loc 1 206 19 view .LVU16
	bx	lr
.LVL8:
.L220:
	.loc 1 185 5 view .LVU17
	cmp	r0, #7680
	beq	.L64
	ble	.L224
	cmp	r0, #8448
	beq	.L74
	ble	.L225
	cmp	r0, #8832
	beq	.L79
	ble	.L226
	cmp	r0, #8960
	bne	.L82
	.loc 1 498 19 view .LVU18
	ldr	r0, .L277+8
.LVL9:
	.loc 1 498 19 view .LVU19
	bx	lr
.LVL10:
.L224:
	.loc 1 185 5 view .LVU20
	cmp	r0, #4736
	beq	.L65
	ble	.L227
	cmp	r0, #5120
	beq	.L70
	ble	.L228
	cmp	r0, #5248
	bne	.L73
	.loc 1 277 19 view .LVU21
	ldr	r0, .L277+12
.LVL11:
	.loc 1 277 19 view .LVU22
	bx	lr
.LVL12:
.L227:
	.loc 1 185 5 view .LVU23
	cmp	r0, #4480
	beq	.L66
	ble	.L229
	cmp	r0, #4608
	bne	.L69
	.loc 1 267 19 view .LVU24
	ldr	r0, .L277+16
.LVL13:
	.loc 1 267 19 view .LVU25
	bx	lr
.LVL14:
.L229:
	.loc 1 185 5 view .LVU26
	cmp	r0, #4224
	beq	.L67
	cmp	r0, #4352
	bne	.L68
	.loc 1 263 19 view .LVU27
	ldr	r0, .L277+20
.LVL15:
	.loc 1 263 19 view .LVU28
	bx	lr
.LVL16:
.L228:
	.loc 1 185 5 view .LVU29
	cmp	r0, #4864
	beq	.L71
	cmp	r0, #4992
	bne	.L72
	.loc 1 273 19 view .LVU30
	ldr	r0, .L277+24
.LVL17:
	.loc 1 273 19 view .LVU31
	bx	lr
.LVL18:
.L225:
	.loc 1 185 5 view .LVU32
	cmp	r0, #8064
	beq	.L75
	ble	.L230
	cmp	r0, #8320
	bne	.L78
	.loc 1 488 19 view .LVU33
	ldr	r0, .L277+28
.LVL19:
	.loc 1 488 19 view .LVU34
	bx	lr
.LVL20:
.L230:
	.loc 1 185 5 view .LVU35
	cmp	r0, #7808
	beq	.L76
	cmp	r0, #7936
	bne	.L77
	.loc 1 317 19 view .LVU36
	ldr	r0, .L277+32
.LVL21:
	.loc 1 317 19 view .LVU37
	bx	lr
.LVL22:
.L226:
	.loc 1 185 5 view .LVU38
	cmp	r0, #8576
	beq	.L80
	cmp	r0, #8704
	bne	.L81
	.loc 1 494 19 view .LVU39
	ldr	r0, .L277+36
.LVL23:
	.loc 1 494 19 view .LVU40
	bx	lr
.LVL24:
.L221:
	.loc 1 185 5 view .LVU41
	cmp	r0, #9728
	beq	.L84
	ble	.L231
	cmp	r0, #10112
	beq	.L89
	ble	.L232
	cmp	r0, #10240
	bne	.L92
	.loc 1 518 19 view .LVU42
	ldr	r0, .L277+40
.LVL25:
	.loc 1 518 19 view .LVU43
	bx	lr
.LVL26:
.L231:
	.loc 1 185 5 view .LVU44
	cmp	r0, #9472
	beq	.L85
	ble	.L233
	cmp	r0, #9600
	bne	.L88
	.loc 1 508 19 view .LVU45
	ldr	r0, .L277+44
.LVL27:
	.loc 1 508 19 view .LVU46
	bx	lr
.LVL28:
.L233:
	.loc 1 185 5 view .LVU47
	cmp	r0, #9216
	beq	.L86
	cmp	r0, #9344
	bne	.L87
	.loc 1 504 19 view .LVU48
	ldr	r0, .L277+48
.LVL29:
	.loc 1 504 19 view .LVU49
	bx	lr
.LVL30:
.L232:
	.loc 1 185 5 view .LVU50
	cmp	r0, #9856
	beq	.L90
	cmp	r0, #9984
	bne	.L91
	.loc 1 514 19 view .LVU51
	ldr	r0, .L277+52
.LVL31:
	.loc 1 514 19 view .LVU52
	bx	lr
.LVL32:
.L222:
	.loc 1 185 5 view .LVU53
	cmp	r0, #11776
	beq	.L94
	ble	.L234
	cmp	r0, #11904
	bne	.L97
	.loc 1 330 19 view .LVU54
	ldr	r0, .L277+56
.LVL33:
	.loc 1 330 19 view .LVU55
	bx	lr
.LVL34:
.L234:
	.loc 1 185 5 view .LVU56
	cmp	r0, #10496
	beq	.L95
	cmp	r0, #10624
	bne	.L96
	.loc 1 524 19 view .LVU57
	ldr	r0, .L277+60
.LVL35:
	.loc 1 524 19 view .LVU58
	bx	lr
.LVL36:
.L223:
	.loc 1 185 5 view .LVU59
	cmp	r0, #12160
	bne	.L100
	.loc 1 326 19 view .LVU60
	ldr	r0, .L277+64
.LVL37:
	.loc 1 326 19 view .LVU61
	bx	lr
.LVL38:
.L216:
	.loc 1 185 5 view .LVU62
	cmp	r0, #14592
	beq	.L102
	ble	.L235
	cmp	r0, #15232
	beq	.L112
	ble	.L236
	cmp	r0, #15488
	beq	.L117
	cmp	r0, #15616
	bne	.L237
	.loc 1 292 19 view .LVU63
	ldr	r0, .L277+68
.LVL39:
	.loc 1 292 19 view .LVU64
	bx	lr
.LVL40:
.L235:
	.loc 1 185 5 view .LVU65
	cmp	r0, #13184
	beq	.L103
	ble	.L238
	cmp	r0, #13696
	beq	.L108
	ble	.L239
	cmp	r0, #14464
	bne	.L111
	.loc 1 310 19 view .LVU66
	ldr	r0, .L277+72
.LVL41:
	.loc 1 310 19 view .LVU67
	bx	lr
.LVL42:
.L238:
	.loc 1 185 5 view .LVU68
	cmp	r0, #12928
	beq	.L104
	ble	.L240
	cmp	r0, #13056
	bne	.L107
	.loc 1 216 19 view .LVU69
	ldr	r0, .L277+76
.LVL43:
	.loc 1 216 19 view .LVU70
	bx	lr
.LVL44:
.L240:
	.loc 1 185 5 view .LVU71
	cmp	r0, #12672
	beq	.L105
	cmp	r0, #12800
	bne	.L106
	.loc 1 212 19 view .LVU72
	ldr	r0, .L277+80
.LVL45:
	.loc 1 212 19 view .LVU73
	bx	lr
.LVL46:
.L239:
	.loc 1 185 5 view .LVU74
	cmp	r0, #13312
	beq	.L109
	cmp	r0, #13440
	bne	.L110
	.loc 1 222 19 view .LVU75
	ldr	r0, .L277+84
.LVL47:
	.loc 1 222 19 view .LVU76
	bx	lr
.LVL48:
.L236:
	.loc 1 185 5 view .LVU77
	cmp	r0, #14976
	beq	.L113
	ble	.L241
	cmp	r0, #15104
	bne	.L116
	.loc 1 300 19 view .LVU78
	ldr	r0, .L277+88
.LVL49:
	.loc 1 300 19 view .LVU79
	bx	lr
.LVL50:
.L241:
	.loc 1 185 5 view .LVU80
	cmp	r0, #14720
	beq	.L114
	cmp	r0, #14848
	bne	.L115
	.loc 1 304 19 view .LVU81
	ldr	r0, .L277+92
.LVL51:
	.loc 1 304 19 view .LVU82
	bx	lr
.LVL52:
.L237:
	.loc 1 185 5 view .LVU83
	cmp	r0, #15360
	bne	.L119
	.loc 1 296 19 view .LVU84
	ldr	r0, .L277+96
.LVL53:
	.loc 1 296 19 view .LVU85
	bx	lr
.LVL54:
.L217:
	.loc 1 185 5 view .LVU86
	cmp	r0, #16512
	beq	.L121
	ble	.L242
	cmp	r0, #16896
	beq	.L126
	ble	.L243
	cmp	r0, #17024
	bne	.L129
	.loc 1 372 19 view .LVU87
	ldr	r0, .L277+100
.LVL55:
	.loc 1 372 19 view .LVU88
	bx	lr
.LVL56:
.L242:
	.loc 1 185 5 view .LVU89
	cmp	r0, #16128
	beq	.L122
	ble	.L244
	cmp	r0, #16256
	bne	.L125
	.loc 1 282 19 view .LVU90
	ldr	r0, .L277+104
.LVL57:
	.loc 1 282 19 view .LVU91
	bx	lr
.LVL58:
.L244:
	.loc 1 185 5 view .LVU92
	cmp	r0, #15872
	beq	.L123
	cmp	r0, #16000
	bne	.L124
	.loc 1 286 19 view .LVU93
	ldr	r0, .L277+108
.LVL59:
	.loc 1 286 19 view .LVU94
	bx	lr
.L278:
	.align	2
.L277:
	.word	.LC22
	.word	.LC57
	.word	.LC148
	.word	.LC133
	.word	.LC36
	.word	.LC32
	.word	.LC37
	.word	.LC136
	.word	.LC132
	.word	.LC137
	.word	.LC58
	.word	.LC146
	.word	.LC142
	.word	.LC147
	.word	.LC151
	.word	.LC59
	.word	.LC42
	.word	.LC45
	.word	.LC46
	.word	.LC16
	.word	.LC12
	.word	.LC52
	.word	.LC44
	.word	.LC47
	.word	.LC78
	.word	.LC23
	.word	.LC76
	.word	.LC38
.LVL60:
.L243:
	.loc 1 185 5 view .LVU95
	cmp	r0, #16640
	beq	.L127
	cmp	r0, #16768
	bne	.L128
	.loc 1 368 19 view .LVU96
	ldr	r0, .L279
.LVL61:
	.loc 1 368 19 view .LVU97
	bx	lr
.LVL62:
.L218:
	.loc 1 185 5 view .LVU98
	cmp	r0, #17536
	beq	.L131
	ble	.L245
	cmp	r0, #19200
	bne	.L134
	.loc 1 245 19 view .LVU99
	ldr	r0, .L279+4
.LVL63:
	.loc 1 245 19 view .LVU100
	bx	lr
.LVL64:
.L245:
	.loc 1 185 5 view .LVU101
	cmp	r0, #17280
	beq	.L132
	cmp	r0, #17408
	bne	.L133
	.loc 1 378 19 view .LVU102
	ldr	r0, .L279+8
.LVL65:
	.loc 1 378 19 view .LVU103
	bx	lr
.LVL66:
.L219:
	.loc 1 185 5 view .LVU104
	cmp	r0, #19584
	bne	.L137
	.loc 1 241 19 view .LVU105
	ldr	r0, .L279+12
.LVL67:
	.loc 1 241 19 view .LVU106
	bx	lr
.LVL68:
.L4:
	.loc 1 185 5 view .LVU107
	cmp	r0, #26752
	beq	.L138
	ble	.L246
	cmp	r0, #29440
	beq	.L177
	ble	.L247
	cmp	r0, #30848
	beq	.L196
	ble	.L248
	cmp	r0, #31872
	beq	.L206
	ble	.L249
	cmp	r0, #32512
	beq	.L211
	cmp	r0, #32640
	bne	.L250
	.loc 1 433 19 view .LVU108
	ldr	r0, .L279+16
.LVL69:
	.loc 1 433 19 view .LVU109
	bx	lr
.LVL70:
.L246:
	.loc 1 185 5 view .LVU110
	cmp	r0, #23936
	beq	.L139
	ble	.L251
	cmp	r0, #25472
	beq	.L159
	ble	.L252
	cmp	r0, #26240
	beq	.L169
	ble	.L253
	cmp	r0, #26496
	beq	.L174
	cmp	r0, #26624
	bne	.L254
	.loc 1 461 19 view .LVU111
	ldr	r0, .L279+20
.LVL71:
	.loc 1 461 19 view .LVU112
	bx	lr
.LVL72:
.L251:
	.loc 1 185 5 view .LVU113
	cmp	r0, #21504
	beq	.L140
	ble	.L255
	cmp	r0, #22144
	beq	.L150
	ble	.L256
	cmp	r0, #22528
	beq	.L155
	ble	.L257
	cmp	r0, #22656
	bne	.L158
	.loc 1 359 19 view .LVU114
	ldr	r0, .L279+24
.LVL73:
	.loc 1 359 19 view .LVU115
	bx	lr
.LVL74:
.L255:
	.loc 1 185 5 view .LVU116
	cmp	r0, #20736
	beq	.L141
	ble	.L258
	cmp	r0, #21248
	beq	.L146
	ble	.L259
	cmp	r0, #21376
	bne	.L149
	.loc 1 339 19 view .LVU117
	ldr	r0, .L279+28
.LVL75:
	.loc 1 339 19 view .LVU118
	bx	lr
.LVL76:
.L258:
	.loc 1 185 5 view .LVU119
	cmp	r0, #20352
	beq	.L142
	ble	.L260
	cmp	r0, #20608
	bne	.L145
	.loc 1 250 19 view .LVU120
	ldr	r0, .L279+32
.LVL77:
	.loc 1 250 19 view .LVU121
	bx	lr
.LVL78:
.L260:
	.loc 1 185 5 view .LVU122
	cmp	r0, #20096
	beq	.L143
	cmp	r0, #20224
	bne	.L144
	.loc 1 231 19 view .LVU123
	ldr	r0, .L279+36
.LVL79:
	.loc 1 231 19 view .LVU124
	bx	lr
.LVL80:
.L259:
	.loc 1 185 5 view .LVU125
	cmp	r0, #20864
	beq	.L147
	cmp	r0, #20992
	bne	.L148
	.loc 1 256 19 view .LVU126
	ldr	r0, .L279+40
.LVL81:
	.loc 1 256 19 view .LVU127
	bx	lr
.LVL82:
.L256:
	.loc 1 185 5 view .LVU128
	cmp	r0, #21888
	beq	.L151
	ble	.L261
	cmp	r0, #22016
	bne	.L154
	.loc 1 349 19 view .LVU129
	ldr	r0, .L279+44
.LVL83:
	.loc 1 349 19 view .LVU130
	bx	lr
.LVL84:
.L261:
	.loc 1 185 5 view .LVU131
	cmp	r0, #21632
	beq	.L152
	cmp	r0, #21760
	bne	.L153
	.loc 1 345 19 view .LVU132
	ldr	r0, .L279+48
.LVL85:
	.loc 1 345 19 view .LVU133
	bx	lr
.LVL86:
.L257:
	.loc 1 185 5 view .LVU134
	cmp	r0, #22272
	beq	.L156
	cmp	r0, #22400
	bne	.L157
	.loc 1 355 19 view .LVU135
	ldr	r0, .L279+52
.LVL87:
	.loc 1 355 19 view .LVU136
	bx	lr
.LVL88:
.L252:
	.loc 1 185 5 view .LVU137
	cmp	r0, #24832
	beq	.L160
	ble	.L262
	cmp	r0, #25216
	beq	.L165
	ble	.L263
	cmp	r0, #25344
	bne	.L168
	.loc 1 199 19 view .LVU138
	ldr	r0, .L279+56
.LVL89:
	.loc 1 199 19 view .LVU139
	bx	lr
.LVL90:
.L262:
	.loc 1 185 5 view .LVU140
	cmp	r0, #24576
	beq	.L161
	ble	.L264
	cmp	r0, #24704
	bne	.L164
	ldr	r0, .L279+60
.LVL91:
	.loc 1 185 5 view .LVU141
	bx	lr
.LVL92:
.L264:
	.loc 1 185 5 view .LVU142
	cmp	r0, #24192
	beq	.L162
	cmp	r0, #24320
	bne	.L163
	.loc 1 479 19 view .LVU143
	ldr	r0, .L279+64
.LVL93:
	.loc 1 479 19 view .LVU144
	bx	lr
.LVL94:
.L263:
	.loc 1 185 5 view .LVU145
	cmp	r0, #24960
	beq	.L166
	cmp	r0, #25088
	bne	.L167
	.loc 1 195 19 view .LVU146
	ldr	r0, .L279+68
.LVL95:
	.loc 1 195 19 view .LVU147
	bx	lr
.LVL96:
.L253:
	.loc 1 185 5 view .LVU148
	cmp	r0, #25984
	beq	.L170
	ble	.L265
	cmp	r0, #26112
	bne	.L173
	.loc 1 469 19 view .LVU149
	ldr	r0, .L279+72
.LVL97:
	.loc 1 469 19 view .LVU150
	bx	lr
.LVL98:
.L265:
	.loc 1 185 5 view .LVU151
	cmp	r0, #25728
	beq	.L171
	cmp	r0, #25856
	bne	.L172
	.loc 1 473 19 view .LVU152
	ldr	r0, .L279+76
.LVL99:
	.loc 1 473 19 view .LVU153
	bx	lr
.LVL100:
.L254:
	.loc 1 185 5 view .LVU154
	cmp	r0, #26368
	bne	.L176
	.loc 1 465 19 view .LVU155
	ldr	r0, .L279+80
.LVL101:
	.loc 1 465 19 view .LVU156
	bx	lr
.LVL102:
.L247:
	.loc 1 185 5 view .LVU157
	cmp	r0, #28160
	beq	.L178
	ble	.L266
	cmp	r0, #28928
	beq	.L188
	ble	.L267
	cmp	r0, #29184
	beq	.L193
	cmp	r0, #29312
	bne	.L268
	.loc 1 395 19 view .LVU158
	ldr	r0, .L279+84
.LVL103:
	.loc 1 395 19 view .LVU159
	bx	lr
.LVL104:
.L266:
	.loc 1 185 5 view .LVU160
	cmp	r0, #27520
	beq	.L179
	ble	.L269
	cmp	r0, #27904
	beq	.L184
	ble	.L270
	cmp	r0, #28032
	bne	.L187
	.loc 1 441 19 view .LVU161
	ldr	r0, .L279+88
.LVL105:
	.loc 1 441 19 view .LVU162
	bx	lr
.LVL106:
.L269:
	.loc 1 185 5 view .LVU163
	cmp	r0, #27264
	beq	.L180
	ble	.L271
	cmp	r0, #27392
	bne	.L183
	.loc 1 451 19 view .LVU164
	ldr	r0, .L279+92
.LVL107:
	.loc 1 451 19 view .LVU165
	bx	lr
.LVL108:
.L271:
	.loc 1 185 5 view .LVU166
	cmp	r0, #26880
	beq	.L181
	cmp	r0, #27136
	bne	.L182
	.loc 1 455 19 view .LVU167
	ldr	r0, .L279+96
.LVL109:
	.loc 1 455 19 view .LVU168
	bx	lr
.LVL110:
.L270:
	.loc 1 185 5 view .LVU169
	cmp	r0, #27648
	beq	.L185
	cmp	r0, #27776
	bne	.L186
	.loc 1 445 19 view .LVU170
	ldr	r0, .L279+100
.LVL111:
	.loc 1 445 19 view .LVU171
	bx	lr
.LVL112:
.L267:
	.loc 1 185 5 view .LVU172
	cmp	r0, #28672
	beq	.L189
	ble	.L272
	cmp	r0, #28800
	bne	.L192
	.loc 1 387 19 view .LVU173
	ldr	r0, .L279+104
.LVL113:
	.loc 1 387 19 view .LVU174
	bx	lr
.L280:
	.align	2
.L279:
	.word	.LC77
	.word	.LC21
	.word	.LC24
	.word	.LC119
	.word	.LC104
	.word	.LC122
	.word	.LC6
	.word	.LC68
	.word	.LC61
	.word	.LC25
	.word	.LC62
	.word	.LC71
	.word	.LC67
	.word	.LC72
	.word	.LC123
	.word	.LC4
	.word	.LC0
	.word	.LC5
	.word	.LC121
	.word	.LC124
	.word	.LC88
	.word	.LC85
	.word	.LC84
	.word	.LC111
	.word	.LC115
	.word	.LC110
	.word	.LC86
.LVL114:
.L272:
	.loc 1 185 5 view .LVU175
	cmp	r0, #28288
	beq	.L190
	cmp	r0, #28544
	bne	.L191
	.loc 1 435 19 view .LVU176
	ldr	r0, .L281
.LVL115:
	.loc 1 435 19 view .LVU177
	bx	lr
.LVL116:
.L268:
	.loc 1 185 5 view .LVU178
	cmp	r0, #29056
	bne	.L195
	.loc 1 391 19 view .LVU179
	ldr	r0, .L281+4
.LVL117:
	.loc 1 391 19 view .LVU180
	bx	lr
.LVL118:
.L248:
	.loc 1 185 5 view .LVU181
	cmp	r0, #30208
	beq	.L197
	ble	.L273
	cmp	r0, #30592
	beq	.L202
	ble	.L274
	cmp	r0, #30720
	bne	.L205
	.loc 1 415 19 view .LVU182
	ldr	r0, .L281+8
.LVL119:
	.loc 1 415 19 view .LVU183
	bx	lr
.LVL120:
.L273:
	.loc 1 185 5 view .LVU184
	cmp	r0, #29952
	beq	.L198
	ble	.L275
	cmp	r0, #30080
	bne	.L201
	.loc 1 405 19 view .LVU185
	ldr	r0, .L281+12
.LVL121:
	.loc 1 405 19 view .LVU186
	bx	lr
.LVL122:
.L275:
	.loc 1 185 5 view .LVU187
	cmp	r0, #29696
	beq	.L199
	cmp	r0, #29824
	bne	.L200
	.loc 1 401 19 view .LVU188
	ldr	r0, .L281+16
.LVL123:
	.loc 1 401 19 view .LVU189
	bx	lr
.LVL124:
.L274:
	.loc 1 185 5 view .LVU190
	cmp	r0, #30336
	beq	.L203
	cmp	r0, #30464
	bne	.L204
	.loc 1 411 19 view .LVU191
	ldr	r0, .L281+20
.LVL125:
	.loc 1 411 19 view .LVU192
	bx	lr
.LVL126:
.L249:
	.loc 1 185 5 view .LVU193
	cmp	r0, #31616
	beq	.L207
	ble	.L276
	cmp	r0, #31744
	bne	.L210
	.loc 1 425 19 view .LVU194
	ldr	r0, .L281+24
.LVL127:
	.loc 1 425 19 view .LVU195
	bx	lr
.LVL128:
.L276:
	.loc 1 185 5 view .LVU196
	cmp	r0, #31232
	beq	.L208
	cmp	r0, #31488
	bne	.L209
	.loc 1 421 19 view .LVU197
	ldr	r0, .L281+28
.LVL129:
	.loc 1 421 19 view .LVU198
	bx	lr
.LVL130:
.L250:
	.loc 1 185 5 view .LVU199
	cmp	r0, #32384
	bne	.L213
	.loc 1 429 19 view .LVU200
	ldr	r0, .L281+32
.LVL131:
	.loc 1 429 19 view .LVU201
	bx	lr
.LVL132:
.L61:
	.loc 1 235 19 view .LVU202
	ldr	r0, .L281+36
.LVL133:
	.loc 1 235 19 view .LVU203
	bx	lr
.LVL134:
.L62:
	.loc 1 208 19 view .LVU204
	ldr	r0, .L281+40
.LVL135:
	.loc 1 208 19 view .LVU205
	bx	lr
.LVL136:
.L63:
	.loc 1 500 19 view .LVU206
	ldr	r0, .L281+44
.LVL137:
	.loc 1 500 19 view .LVU207
	bx	lr
.LVL138:
.L64:
	.loc 1 321 19 view .LVU208
	ldr	r0, .L281+48
.LVL139:
	.loc 1 321 19 view .LVU209
	bx	lr
.LVL140:
.L65:
	.loc 1 269 19 view .LVU210
	ldr	r0, .L281+52
.LVL141:
	.loc 1 269 19 view .LVU211
	bx	lr
.LVL142:
.L66:
	.loc 1 265 19 view .LVU212
	ldr	r0, .L281+56
.LVL143:
	.loc 1 265 19 view .LVU213
	bx	lr
.LVL144:
.L67:
	.loc 1 261 19 view .LVU214
	ldr	r0, .L281+60
.LVL145:
	.loc 1 261 19 view .LVU215
	bx	lr
.LVL146:
.L68:
	.loc 1 534 11 view .LVU216
	movs	r0, #0
.LVL147:
	.loc 1 534 11 view .LVU217
	bx	lr
.LVL148:
.L69:
	.loc 1 534 11 view .LVU218
	movs	r0, #0
.LVL149:
	.loc 1 534 11 view .LVU219
	bx	lr
.LVL150:
.L70:
	.loc 1 275 19 view .LVU220
	ldr	r0, .L281+64
.LVL151:
	.loc 1 275 19 view .LVU221
	bx	lr
.LVL152:
.L71:
	.loc 1 271 19 view .LVU222
	ldr	r0, .L281+68
.LVL153:
	.loc 1 271 19 view .LVU223
	bx	lr
.LVL154:
.L72:
	.loc 1 534 11 view .LVU224
	movs	r0, #0
.LVL155:
	.loc 1 534 11 view .LVU225
	bx	lr
.LVL156:
.L73:
	.loc 1 534 11 view .LVU226
	movs	r0, #0
.LVL157:
	.loc 1 534 11 view .LVU227
	bx	lr
.LVL158:
.L74:
	.loc 1 490 19 view .LVU228
	ldr	r0, .L281+72
.LVL159:
	.loc 1 490 19 view .LVU229
	bx	lr
.LVL160:
.L75:
	.loc 1 315 19 view .LVU230
	ldr	r0, .L281+76
.LVL161:
	.loc 1 315 19 view .LVU231
	bx	lr
.LVL162:
.L76:
	.loc 1 319 19 view .LVU232
	ldr	r0, .L281+80
.LVL163:
	.loc 1 319 19 view .LVU233
	bx	lr
.LVL164:
.L77:
	.loc 1 534 11 view .LVU234
	movs	r0, #0
.LVL165:
	.loc 1 534 11 view .LVU235
	bx	lr
.LVL166:
.L78:
	.loc 1 534 11 view .LVU236
	movs	r0, #0
.LVL167:
	.loc 1 534 11 view .LVU237
	bx	lr
.LVL168:
.L79:
	.loc 1 496 19 view .LVU238
	ldr	r0, .L281+84
.LVL169:
	.loc 1 496 19 view .LVU239
	bx	lr
.LVL170:
.L80:
	.loc 1 492 19 view .LVU240
	ldr	r0, .L281+88
.LVL171:
	.loc 1 492 19 view .LVU241
	bx	lr
.LVL172:
.L81:
	.loc 1 534 11 view .LVU242
	movs	r0, #0
.LVL173:
	.loc 1 534 11 view .LVU243
	bx	lr
.LVL174:
.L82:
	.loc 1 534 11 view .LVU244
	movs	r0, #0
.LVL175:
	.loc 1 534 11 view .LVU245
	bx	lr
.LVL176:
.L83:
	.loc 1 520 19 view .LVU246
	ldr	r0, .L281+92
.LVL177:
	.loc 1 520 19 view .LVU247
	bx	lr
.LVL178:
.L84:
	.loc 1 510 19 view .LVU248
	ldr	r0, .L281+96
.LVL179:
	.loc 1 510 19 view .LVU249
	bx	lr
.LVL180:
.L85:
	.loc 1 506 19 view .LVU250
	ldr	r0, .L281+100
.LVL181:
	.loc 1 506 19 view .LVU251
	bx	lr
.LVL182:
.L86:
	.loc 1 502 19 view .LVU252
	ldr	r0, .L281+104
.LVL183:
	.loc 1 502 19 view .LVU253
	bx	lr
.LVL184:
.L87:
	.loc 1 534 11 view .LVU254
	movs	r0, #0
.LVL185:
	.loc 1 534 11 view .LVU255
	bx	lr
.LVL186:
.L88:
	.loc 1 534 11 view .LVU256
	movs	r0, #0
.LVL187:
	.loc 1 534 11 view .LVU257
	bx	lr
.LVL188:
.L89:
	.loc 1 516 19 view .LVU258
	ldr	r0, .L281+108
.LVL189:
	.loc 1 516 19 view .LVU259
	bx	lr
.LVL190:
.L90:
	.loc 1 512 19 view .LVU260
	ldr	r0, .L281+112
.LVL191:
	.loc 1 512 19 view .LVU261
	bx	lr
.LVL192:
.L91:
	.loc 1 534 11 view .LVU262
	movs	r0, #0
.LVL193:
	.loc 1 534 11 view .LVU263
	bx	lr
.LVL194:
.L92:
	.loc 1 534 11 view .LVU264
	movs	r0, #0
.LVL195:
	.loc 1 534 11 view .LVU265
	bx	lr
.LVL196:
.L93:
	.loc 1 328 19 view .LVU266
	ldr	r0, .L281+116
.LVL197:
	.loc 1 328 19 view .LVU267
	bx	lr
.LVL198:
.L94:
	.loc 1 332 19 view .LVU268
	ldr	r0, .L281+120
.LVL199:
	.loc 1 332 19 view .LVU269
	bx	lr
.LVL200:
.L95:
	.loc 1 522 19 view .LVU270
	ldr	r0, .L281+124
.LVL201:
	.loc 1 522 19 view .LVU271
	bx	lr
.LVL202:
.L96:
	.loc 1 534 11 view .LVU272
	movs	r0, #0
.LVL203:
	.loc 1 534 11 view .LVU273
	bx	lr
.LVL204:
.L97:
	.loc 1 534 11 view .LVU274
	movs	r0, #0
.LVL205:
	.loc 1 534 11 view .LVU275
	bx	lr
.LVL206:
.L98:
	.loc 1 526 19 view .LVU276
	ldr	r0, .L281+128
.LVL207:
	.loc 1 526 19 view .LVU277
	bx	lr
.LVL208:
.L100:
	.loc 1 534 11 view .LVU278
	movs	r0, #0
.LVL209:
	.loc 1 534 11 view .LVU279
	bx	lr
.LVL210:
.L101:
	.loc 1 290 19 view .LVU280
	ldr	r0, .L281+132
.LVL211:
	.loc 1 290 19 view .LVU281
	bx	lr
.LVL212:
.L102:
	.loc 1 308 19 view .LVU282
	ldr	r0, .L281+136
.LVL213:
	.loc 1 308 19 view .LVU283
	bx	lr
.LVL214:
.L103:
	.loc 1 218 19 view .LVU284
	ldr	r0, .L281+140
.LVL215:
	.loc 1 218 19 view .LVU285
	bx	lr
.LVL216:
.L104:
	.loc 1 214 19 view .LVU286
	ldr	r0, .L281+144
.LVL217:
	.loc 1 214 19 view .LVU287
	bx	lr
.LVL218:
.L105:
	.loc 1 210 19 view .LVU288
	ldr	r0, .L281+148
.LVL219:
	.loc 1 210 19 view .LVU289
	bx	lr
.LVL220:
.L106:
	.loc 1 534 11 view .LVU290
	movs	r0, #0
.LVL221:
	.loc 1 534 11 view .LVU291
	bx	lr
.LVL222:
.L107:
	.loc 1 534 11 view .LVU292
	movs	r0, #0
.LVL223:
	.loc 1 534 11 view .LVU293
	bx	lr
.LVL224:
.L108:
	.loc 1 224 19 view .LVU294
	ldr	r0, .L281+152
.LVL225:
	.loc 1 224 19 view .LVU295
	bx	lr
.LVL226:
.L109:
	.loc 1 220 19 view .LVU296
	ldr	r0, .L281+156
.LVL227:
	.loc 1 220 19 view .LVU297
	bx	lr
.LVL228:
.L110:
	.loc 1 534 11 view .LVU298
	movs	r0, #0
.LVL229:
	.loc 1 534 11 view .LVU299
	bx	lr
.LVL230:
.L111:
	.loc 1 534 11 view .LVU300
	movs	r0, #0
.LVL231:
	.loc 1 534 11 view .LVU301
	bx	lr
.LVL232:
.L112:
	.loc 1 298 19 view .LVU302
	ldr	r0, .L281+160
.LVL233:
	.loc 1 298 19 view .LVU303
	bx	lr
.LVL234:
.L113:
	.loc 1 302 19 view .LVU304
	ldr	r0, .L281+164
.LVL235:
	.loc 1 302 19 view .LVU305
	bx	lr
.LVL236:
.L114:
	.loc 1 306 19 view .LVU306
	ldr	r0, .L281+168
.LVL237:
	.loc 1 306 19 view .LVU307
	bx	lr
.LVL238:
.L115:
	.loc 1 534 11 view .LVU308
	movs	r0, #0
.LVL239:
	.loc 1 534 11 view .LVU309
	bx	lr
.LVL240:
.L116:
	.loc 1 534 11 view .LVU310
	movs	r0, #0
.LVL241:
	.loc 1 534 11 view .LVU311
	bx	lr
.LVL242:
.L117:
	.loc 1 294 19 view .LVU312
	ldr	r0, .L281+172
.LVL243:
	.loc 1 294 19 view .LVU313
	bx	lr
.LVL244:
.L119:
	.loc 1 534 11 view .LVU314
	movs	r0, #0
.LVL245:
	.loc 1 534 11 view .LVU315
	bx	lr
.LVL246:
.L120:
	.loc 1 374 19 view .LVU316
	ldr	r0, .L281+176
.LVL247:
	.loc 1 374 19 view .LVU317
	bx	lr
.LVL248:
.L121:
	.loc 1 364 19 view .LVU318
	ldr	r0, .L281+180
.LVL249:
	.loc 1 364 19 view .LVU319
	bx	lr
.LVL250:
.L122:
	.loc 1 284 19 view .LVU320
	ldr	r0, .L281+184
.LVL251:
	.loc 1 284 19 view .LVU321
	bx	lr
.LVL252:
.L123:
	.loc 1 288 19 view .LVU322
	ldr	r0, .L281+188
.LVL253:
	.loc 1 288 19 view .LVU323
	bx	lr
.LVL254:
.L124:
	.loc 1 534 11 view .LVU324
	movs	r0, #0
.LVL255:
	.loc 1 534 11 view .LVU325
	bx	lr
.LVL256:
.L125:
	.loc 1 534 11 view .LVU326
	movs	r0, #0
.LVL257:
	.loc 1 534 11 view .LVU327
	bx	lr
.LVL258:
.L126:
	.loc 1 370 19 view .LVU328
	ldr	r0, .L281+192
.LVL259:
	.loc 1 370 19 view .LVU329
	bx	lr
.LVL260:
.L127:
	.loc 1 366 19 view .LVU330
	ldr	r0, .L281+196
.LVL261:
	.loc 1 366 19 view .LVU331
	bx	lr
.LVL262:
.L128:
	.loc 1 534 11 view .LVU332
	movs	r0, #0
.LVL263:
	.loc 1 534 11 view .LVU333
	bx	lr
.LVL264:
.L129:
	.loc 1 534 11 view .LVU334
	movs	r0, #0
.LVL265:
	.loc 1 534 11 view .LVU335
	bx	lr
.LVL266:
.L130:
	.loc 1 243 19 view .LVU336
	ldr	r0, .L281+200
.LVL267:
	.loc 1 243 19 view .LVU337
	bx	lr
.LVL268:
.L131:
	.loc 1 380 19 view .LVU338
	ldr	r0, .L281+204
.LVL269:
	.loc 1 380 19 view .LVU339
	bx	lr
.LVL270:
.L132:
	.loc 1 376 19 view .LVU340
	ldr	r0, .L281+208
.LVL271:
	.loc 1 376 19 view .LVU341
	bx	lr
.LVL272:
.L133:
	.loc 1 534 11 view .LVU342
	movs	r0, #0
.LVL273:
	.loc 1 534 11 view .LVU343
	bx	lr
.LVL274:
.L134:
	.loc 1 534 11 view .LVU344
	movs	r0, #0
.LVL275:
	.loc 1 534 11 view .LVU345
	bx	lr
.LVL276:
.L135:
	.loc 1 239 19 view .LVU346
	ldr	r0, .L281+212
.LVL277:
	.loc 1 239 19 view .LVU347
	bx	lr
.LVL278:
.L137:
	.loc 1 534 11 view .LVU348
	movs	r0, #0
.LVL279:
	.loc 1 534 11 view .LVU349
	bx	lr
.LVL280:
.L138:
	.loc 1 459 19 view .LVU350
	ldr	r0, .L281+216
.LVL281:
	.loc 1 459 19 view .LVU351
	bx	lr
.LVL282:
.L139:
	.loc 1 483 19 view .LVU352
	ldr	r0, .L281+220
.LVL283:
	.loc 1 483 19 view .LVU353
	bx	lr
.LVL284:
.L140:
	.loc 1 341 19 view .LVU354
	ldr	r0, .L281+224
.LVL285:
	.loc 1 341 19 view .LVU355
	bx	lr
.LVL286:
.L141:
	.loc 1 252 19 view .LVU356
	ldr	r0, .L281+228
.LVL287:
	.loc 1 252 19 view .LVU357
	bx	lr
.LVL288:
.L142:
	.loc 1 229 19 view .LVU358
	ldr	r0, .L281+232
.LVL289:
	.loc 1 229 19 view .LVU359
	bx	lr
.LVL290:
.L143:
	.loc 1 233 19 view .LVU360
	ldr	r0, .L281+236
.LVL291:
	.loc 1 233 19 view .LVU361
	bx	lr
.LVL292:
.L144:
	.loc 1 534 11 view .LVU362
	movs	r0, #0
.LVL293:
	.loc 1 534 11 view .LVU363
	bx	lr
.LVL294:
.L145:
	.loc 1 534 11 view .LVU364
	movs	r0, #0
.LVL295:
	.loc 1 534 11 view .LVU365
	bx	lr
.LVL296:
.L146:
	.loc 1 337 19 view .LVU366
	ldr	r0, .L281+240
.LVL297:
	.loc 1 337 19 view .LVU367
	bx	lr
.LVL298:
.L147:
	.loc 1 254 19 view .LVU368
	ldr	r0, .L281+244
.LVL299:
	.loc 1 254 19 view .LVU369
	bx	lr
.LVL300:
.L148:
	.loc 1 534 11 view .LVU370
	movs	r0, #0
.LVL301:
	.loc 1 534 11 view .LVU371
	bx	lr
.LVL302:
.L149:
	.loc 1 534 11 view .LVU372
	movs	r0, #0
.LVL303:
	.loc 1 534 11 view .LVU373
	bx	lr
.LVL304:
.L150:
	.loc 1 351 19 view .LVU374
	ldr	r0, .L281+248
.LVL305:
	.loc 1 351 19 view .LVU375
	bx	lr
.LVL306:
.L151:
	.loc 1 347 19 view .LVU376
	ldr	r0, .L281+252
.LVL307:
	.loc 1 347 19 view .LVU377
	bx	lr
.LVL308:
.L152:
	.loc 1 343 19 view .LVU378
	ldr	r0, .L281+256
.LVL309:
	.loc 1 343 19 view .LVU379
	bx	lr
.LVL310:
.L153:
	.loc 1 534 11 view .LVU380
	movs	r0, #0
.LVL311:
	.loc 1 534 11 view .LVU381
	bx	lr
.LVL312:
.L154:
	.loc 1 534 11 view .LVU382
	movs	r0, #0
.LVL313:
	.loc 1 534 11 view .LVU383
	bx	lr
.LVL314:
.L155:
	.loc 1 357 19 view .LVU384
	ldr	r0, .L281+260
.LVL315:
	.loc 1 357 19 view .LVU385
	bx	lr
.LVL316:
.L156:
	.loc 1 353 19 view .LVU386
	ldr	r0, .L281+264
.LVL317:
	.loc 1 353 19 view .LVU387
	bx	lr
.LVL318:
.L157:
	.loc 1 534 11 view .LVU388
	movs	r0, #0
.LVL319:
	.loc 1 534 11 view .LVU389
	bx	lr
.LVL320:
.L158:
	.loc 1 534 11 view .LVU390
	movs	r0, #0
.LVL321:
	.loc 1 534 11 view .LVU391
	bx	lr
.LVL322:
.L159:
	.loc 1 201 19 view .LVU392
	ldr	r0, .L281+268
.LVL323:
	.loc 1 201 19 view .LVU393
	bx	lr
.LVL324:
.L160:
	.loc 1 191 19 view .LVU394
	ldr	r0, .L281+272
.LVL325:
	.loc 1 191 19 view .LVU395
	bx	lr
.LVL326:
.L161:
	.loc 1 477 19 view .LVU396
	ldr	r0, .L281+276
.LVL327:
	.loc 1 477 19 view .LVU397
	bx	lr
.LVL328:
.L162:
	.loc 1 481 19 view .LVU398
	ldr	r0, .L281+280
.LVL329:
	.loc 1 481 19 view .LVU399
	bx	lr
.LVL330:
.L163:
	.loc 1 534 11 view .LVU400
	movs	r0, #0
.LVL331:
	.loc 1 534 11 view .LVU401
	bx	lr
.LVL332:
.L164:
	.loc 1 534 11 view .LVU402
	movs	r0, #0
.LVL333:
	.loc 1 534 11 view .LVU403
	bx	lr
.LVL334:
.L165:
	.loc 1 197 19 view .LVU404
	ldr	r0, .L281+284
.LVL335:
	.loc 1 197 19 view .LVU405
	bx	lr
.LVL336:
.L166:
	.loc 1 193 19 view .LVU406
	ldr	r0, .L281+288
.LVL337:
	.loc 1 193 19 view .LVU407
	bx	lr
.LVL338:
.L167:
	.loc 1 534 11 view .LVU408
	movs	r0, #0
.LVL339:
	.loc 1 534 11 view .LVU409
	bx	lr
.LVL340:
.L168:
	.loc 1 534 11 view .LVU410
	movs	r0, #0
.LVL341:
	.loc 1 534 11 view .LVU411
	bx	lr
.LVL342:
.L169:
	.loc 1 467 19 view .LVU412
	ldr	r0, .L281+292
.LVL343:
	.loc 1 467 19 view .LVU413
	bx	lr
.L282:
	.align	2
.L281:
	.word	.LC83
	.word	.LC98
	.word	.LC103
	.word	.LC96
	.word	.LC92
	.word	.LC97
	.word	.LC105
	.word	.LC102
	.word	.LC152
	.word	.LC8
	.word	.LC138
	.word	.LC56
	.word	.LC33
	.word	.LC31
	.word	.LC29
	.word	.LC30
	.word	.LC34
	.word	.LC35
	.word	.LC53
	.word	.LC55
	.word	.LC54
	.word	.LC134
	.word	.LC135
	.word	.LC143
	.word	.LC141
	.word	.LC139
	.word	.LC140
	.word	.LC144
	.word	.LC145
	.word	.LC60
	.word	.LC149
	.word	.LC150
	.word	.LC7
	.word	.LC51
	.word	.LC13
	.word	.LC11
	.word	.LC9
	.word	.LC10
	.word	.LC14
	.word	.LC15
	.word	.LC48
	.word	.LC50
	.word	.LC49
	.word	.LC43
	.word	.LC73
	.word	.LC39
	.word	.LC41
	.word	.LC40
	.word	.LC74
	.word	.LC75
	.word	.LC81
	.word	.LC79
	.word	.LC80
	.word	.LC20
	.word	.LC131
	.word	.LC63
	.word	.LC26
	.word	.LC17
	.word	.LC19
	.word	.LC18
	.word	.LC27
	.word	.LC28
	.word	.LC66
	.word	.LC64
	.word	.LC65
	.word	.LC69
	.word	.LC70
	.word	.LC1
	.word	.LC128
	.word	.LC130
	.word	.LC129
	.word	.LC2
	.word	.LC3
	.word	.LC125
.LVL344:
.L170:
	.loc 1 471 19 view .LVU414
	ldr	r0, .L283
.LVL345:
	.loc 1 471 19 view .LVU415
	bx	lr
.LVL346:
.L171:
	.loc 1 475 19 view .LVU416
	ldr	r0, .L283+4
.LVL347:
	.loc 1 475 19 view .LVU417
	bx	lr
.LVL348:
.L172:
	.loc 1 534 11 view .LVU418
	movs	r0, #0
.LVL349:
	.loc 1 534 11 view .LVU419
	bx	lr
.LVL350:
.L173:
	.loc 1 534 11 view .LVU420
	movs	r0, #0
.LVL351:
	.loc 1 534 11 view .LVU421
	bx	lr
.LVL352:
.L174:
	.loc 1 463 19 view .LVU422
	ldr	r0, .L283+8
.LVL353:
	.loc 1 463 19 view .LVU423
	bx	lr
.LVL354:
.L176:
	.loc 1 534 11 view .LVU424
	movs	r0, #0
.LVL355:
	.loc 1 534 11 view .LVU425
	bx	lr
.LVL356:
.L177:
	.loc 1 397 19 view .LVU426
	ldr	r0, .L283+12
.LVL357:
	.loc 1 397 19 view .LVU427
	bx	lr
.LVL358:
.L178:
	.loc 1 439 19 view .LVU428
	ldr	r0, .L283+16
.LVL359:
	.loc 1 439 19 view .LVU429
	bx	lr
.LVL360:
.L179:
	.loc 1 449 19 view .LVU430
	ldr	r0, .L283+20
.LVL361:
	.loc 1 449 19 view .LVU431
	bx	lr
.LVL362:
.L180:
	.loc 1 453 19 view .LVU432
	ldr	r0, .L283+24
.LVL363:
	.loc 1 453 19 view .LVU433
	bx	lr
.LVL364:
.L181:
	.loc 1 457 19 view .LVU434
	ldr	r0, .L283+28
.LVL365:
	.loc 1 457 19 view .LVU435
	bx	lr
.LVL366:
.L182:
	.loc 1 534 11 view .LVU436
	movs	r0, #0
.LVL367:
	.loc 1 534 11 view .LVU437
	bx	lr
.LVL368:
.L183:
	.loc 1 534 11 view .LVU438
	movs	r0, #0
.LVL369:
	.loc 1 534 11 view .LVU439
	bx	lr
.LVL370:
.L184:
	.loc 1 443 19 view .LVU440
	ldr	r0, .L283+32
.LVL371:
	.loc 1 443 19 view .LVU441
	bx	lr
.LVL372:
.L185:
	.loc 1 447 19 view .LVU442
	ldr	r0, .L283+36
.LVL373:
	.loc 1 447 19 view .LVU443
	bx	lr
.LVL374:
.L186:
	.loc 1 534 11 view .LVU444
	movs	r0, #0
.LVL375:
	.loc 1 534 11 view .LVU445
	bx	lr
.LVL376:
.L187:
	.loc 1 534 11 view .LVU446
	movs	r0, #0
.LVL377:
	.loc 1 534 11 view .LVU447
	bx	lr
.LVL378:
.L188:
	.loc 1 389 19 view .LVU448
	ldr	r0, .L283+40
.LVL379:
	.loc 1 389 19 view .LVU449
	bx	lr
.LVL380:
.L189:
	.loc 1 385 19 view .LVU450
	ldr	r0, .L283+44
.LVL381:
	.loc 1 385 19 view .LVU451
	bx	lr
.LVL382:
.L190:
	.loc 1 437 19 view .LVU452
	ldr	r0, .L283+48
.LVL383:
	.loc 1 437 19 view .LVU453
	bx	lr
.LVL384:
.L191:
	.loc 1 534 11 view .LVU454
	movs	r0, #0
.LVL385:
	.loc 1 534 11 view .LVU455
	bx	lr
.LVL386:
.L192:
	.loc 1 534 11 view .LVU456
	movs	r0, #0
.LVL387:
	.loc 1 534 11 view .LVU457
	bx	lr
.LVL388:
.L193:
	.loc 1 393 19 view .LVU458
	ldr	r0, .L283+52
.LVL389:
	.loc 1 393 19 view .LVU459
	bx	lr
.LVL390:
.L195:
	.loc 1 534 11 view .LVU460
	movs	r0, #0
.LVL391:
	.loc 1 534 11 view .LVU461
	bx	lr
.LVL392:
.L196:
	.loc 1 417 19 view .LVU462
	ldr	r0, .L283+56
.LVL393:
	.loc 1 417 19 view .LVU463
	bx	lr
.LVL394:
.L197:
	.loc 1 407 19 view .LVU464
	ldr	r0, .L283+60
.LVL395:
	.loc 1 407 19 view .LVU465
	bx	lr
.LVL396:
.L198:
	.loc 1 403 19 view .LVU466
	ldr	r0, .L283+64
.LVL397:
	.loc 1 403 19 view .LVU467
	bx	lr
.LVL398:
.L199:
	.loc 1 399 19 view .LVU468
	ldr	r0, .L283+68
.LVL399:
	.loc 1 399 19 view .LVU469
	bx	lr
.LVL400:
.L200:
	.loc 1 534 11 view .LVU470
	movs	r0, #0
.LVL401:
	.loc 1 534 11 view .LVU471
	bx	lr
.LVL402:
.L201:
	.loc 1 534 11 view .LVU472
	movs	r0, #0
.LVL403:
	.loc 1 534 11 view .LVU473
	bx	lr
.LVL404:
.L202:
	.loc 1 413 19 view .LVU474
	ldr	r0, .L283+72
.LVL405:
	.loc 1 413 19 view .LVU475
	bx	lr
.LVL406:
.L203:
	.loc 1 409 19 view .LVU476
	ldr	r0, .L283+76
.LVL407:
	.loc 1 409 19 view .LVU477
	bx	lr
.LVL408:
.L204:
	.loc 1 534 11 view .LVU478
	movs	r0, #0
.LVL409:
	.loc 1 534 11 view .LVU479
	bx	lr
.LVL410:
.L205:
	.loc 1 534 11 view .LVU480
	movs	r0, #0
.LVL411:
	.loc 1 534 11 view .LVU481
	bx	lr
.LVL412:
.L206:
	.loc 1 427 19 view .LVU482
	ldr	r0, .L283+80
.LVL413:
	.loc 1 427 19 view .LVU483
	bx	lr
.LVL414:
.L207:
	.loc 1 423 19 view .LVU484
	ldr	r0, .L283+84
.LVL415:
	.loc 1 423 19 view .LVU485
	bx	lr
.LVL416:
.L208:
	.loc 1 419 19 view .LVU486
	ldr	r0, .L283+88
.LVL417:
	.loc 1 419 19 view .LVU487
	bx	lr
.LVL418:
.L209:
	.loc 1 534 11 view .LVU488
	movs	r0, #0
.LVL419:
	.loc 1 534 11 view .LVU489
	bx	lr
.LVL420:
.L210:
	.loc 1 534 11 view .LVU490
	movs	r0, #0
.LVL421:
	.loc 1 534 11 view .LVU491
	bx	lr
.LVL422:
.L211:
	.loc 1 431 19 view .LVU492
	ldr	r0, .L283+92
.LVL423:
	.loc 1 431 19 view .LVU493
	bx	lr
.LVL424:
.L213:
	.loc 1 534 11 view .LVU494
	movs	r0, #0
.LVL425:
	.loc 1 535 1 view .LVU495
	bx	lr
.L284:
	.align	2
.L283:
	.word	.LC127
	.word	.LC126
	.word	.LC120
	.word	.LC109
	.word	.LC114
	.word	.LC116
	.word	.LC118
	.word	.LC117
	.word	.LC113
	.word	.LC112
	.word	.LC82
	.word	.LC108
	.word	.LC107
	.word	.LC87
	.word	.LC93
	.word	.LC91
	.word	.LC89
	.word	.LC90
	.word	.LC94
	.word	.LC95
	.word	.LC101
	.word	.LC99
	.word	.LC100
	.word	.LC106
	.cfi_endproc
.LFE100:
	.size	mbedtls_high_level_strerr, .-mbedtls_high_level_strerr
	.section	.rodata.mbedtls_low_level_strerr.str1.4,"aMS",%progbits,1
	.align	2
.LC153:
	.ascii	"AES - Invalid data input length\000"
	.align	2
.LC154:
	.ascii	"AES - Invalid input data\000"
	.align	2
.LC155:
	.ascii	"ARIA - Bad input data\000"
	.align	2
.LC156:
	.ascii	"ARIA - Invalid data input length\000"
	.align	2
.LC157:
	.ascii	"ASN1 - Out of data when parsing an ASN1 data struct"
	.ascii	"ure\000"
	.align	2
.LC158:
	.ascii	"ASN1 - ASN1 tag was of an unexpected value\000"
	.align	2
.LC159:
	.ascii	"ASN1 - Error when trying to determine the length or"
	.ascii	" invalid length\000"
	.align	2
.LC160:
	.ascii	"ASN1 - Actual length differs from expected length\000"
	.align	2
.LC161:
	.ascii	"ASN1 - Data is invalid\000"
	.align	2
.LC162:
	.ascii	"ASN1 - Memory allocation failed\000"
	.align	2
.LC163:
	.ascii	"ASN1 - Buffer too small when writing ASN.1 data str"
	.ascii	"ucture\000"
	.align	2
.LC164:
	.ascii	"BASE64 - Output buffer too small\000"
	.align	2
.LC165:
	.ascii	"BASE64 - Invalid character in input\000"
	.align	2
.LC166:
	.ascii	"BIGNUM - An error occurred while reading from or wr"
	.ascii	"iting to a file\000"
	.align	2
.LC167:
	.ascii	"BIGNUM - Bad input parameters to function\000"
	.align	2
.LC168:
	.ascii	"BIGNUM - There is an invalid character in the digit"
	.ascii	" string\000"
	.align	2
.LC169:
	.ascii	"BIGNUM - The buffer is too small to write to\000"
	.align	2
.LC170:
	.ascii	"BIGNUM - The input arguments are negative or result"
	.ascii	" in illegal output\000"
	.align	2
.LC171:
	.ascii	"BIGNUM - The input argument for division is zero, w"
	.ascii	"hich is not allowed\000"
	.align	2
.LC172:
	.ascii	"BIGNUM - The input arguments are not acceptable\000"
	.align	2
.LC173:
	.ascii	"BIGNUM - Memory allocation failed\000"
	.align	2
.LC174:
	.ascii	"CAMELLIA - Bad input data\000"
	.align	2
.LC175:
	.ascii	"CAMELLIA - Invalid data input length\000"
	.align	2
.LC176:
	.ascii	"CCM - Bad input parameters to the function\000"
	.align	2
.LC177:
	.ascii	"CCM - Authenticated decryption failed\000"
	.align	2
.LC178:
	.ascii	"CHACHA20 - Invalid input parameter(s)\000"
	.align	2
.LC179:
	.ascii	"CHACHAPOLY - The requested operation is not permitt"
	.ascii	"ed in the current state\000"
	.align	2
.LC180:
	.ascii	"CHACHAPOLY - Authenticated decryption failed: data "
	.ascii	"was not authentic\000"
	.align	2
.LC181:
	.ascii	"CTR_DRBG - The entropy source failed\000"
	.align	2
.LC182:
	.ascii	"CTR_DRBG - The requested random buffer length is to"
	.ascii	"o big\000"
	.align	2
.LC183:
	.ascii	"CTR_DRBG - The input (entropy + additional data) is"
	.ascii	" too large\000"
	.align	2
.LC184:
	.ascii	"CTR_DRBG - Read or write error in file\000"
	.align	2
.LC185:
	.ascii	"DES - The data input has an invalid length\000"
	.align	2
.LC186:
	.ascii	"ENTROPY - Critical entropy source failure\000"
	.align	2
.LC187:
	.ascii	"ENTROPY - No more sources can be added\000"
	.align	2
.LC188:
	.ascii	"ENTROPY - No sources have been added to poll\000"
	.align	2
.LC189:
	.ascii	"ENTROPY - No strong sources have been added to poll"
	.ascii	"\000"
	.align	2
.LC190:
	.ascii	"ENTROPY - Read/write error in file\000"
	.align	2
.LC191:
	.ascii	"ERROR - Generic error\000"
	.align	2
.LC192:
	.ascii	"ERROR - This is a bug in the library\000"
	.align	2
.LC193:
	.ascii	"PLATFORM - Hardware accelerator failed\000"
	.align	2
.LC194:
	.ascii	"PLATFORM - The requested feature is not supported b"
	.ascii	"y the platform\000"
	.align	2
.LC195:
	.ascii	"GCM - Authenticated decryption failed\000"
	.align	2
.LC196:
	.ascii	"GCM - Bad input parameters to function\000"
	.align	2
.LC197:
	.ascii	"GCM - An output buffer is too small\000"
	.align	2
.LC198:
	.ascii	"AES - Invalid key length\000"
	.align	2
.LC199:
	.ascii	"HMAC_DRBG - Too many random requested in single cal"
	.ascii	"l\000"
	.align	2
.LC200:
	.ascii	"HMAC_DRBG - Input too large (Entropy + additional)\000"
	.align	2
.LC201:
	.ascii	"HMAC_DRBG - Read/write error in file\000"
	.align	2
.LC202:
	.ascii	"HMAC_DRBG - The entropy source failed\000"
	.align	2
.LC203:
	.ascii	"LMS - Bad data has been input to an LMS function\000"
	.align	2
.LC204:
	.ascii	"LMS - Specified LMS key has utilised all of its pri"
	.ascii	"vate keys\000"
	.align	2
.LC205:
	.ascii	"LMS - LMS signature verification failed\000"
	.align	2
.LC206:
	.ascii	"LMS - LMS failed to allocate space for a private ke"
	.ascii	"y\000"
	.align	2
.LC207:
	.ascii	"LMS - Input/output buffer is too small to contain r"
	.ascii	"equited data\000"
	.align	2
.LC208:
	.ascii	"NET - Failed to open a socket\000"
	.align	2
.LC209:
	.ascii	"NET - The connection to the given server / port fai"
	.ascii	"led\000"
	.align	2
.LC210:
	.ascii	"NET - Binding of the socket failed\000"
	.align	2
.LC211:
	.ascii	"NET - Could not listen on the socket\000"
	.align	2
.LC212:
	.ascii	"NET - Could not accept the incoming connection\000"
	.align	2
.LC213:
	.ascii	"NET - Reading information from the socket failed\000"
	.align	2
.LC214:
	.ascii	"NET - Sending information through the socket failed"
	.ascii	"\000"
	.align	2
.LC215:
	.ascii	"NET - Connection was reset by peer\000"
	.align	2
.LC216:
	.ascii	"NET - Failed to get an IP address for the given hos"
	.ascii	"tname\000"
	.align	2
.LC217:
	.ascii	"NET - Buffer is too small to hold the data\000"
	.align	2
.LC218:
	.ascii	"NET - The context is invalid, eg because it was fre"
	.ascii	"e()ed\000"
	.align	2
.LC219:
	.ascii	"NET - Polling the net context failed\000"
	.align	2
.LC220:
	.ascii	"NET - Input invalid\000"
	.align	2
.LC221:
	.ascii	"OID - OID is not found\000"
	.align	2
.LC222:
	.ascii	"OID - output buffer is too small\000"
	.align	2
.LC223:
	.ascii	"POLY1305 - Invalid input parameter(s)\000"
	.align	2
.LC224:
	.ascii	"SHA1 - SHA-1 input data was malformed\000"
	.align	2
.LC225:
	.ascii	"SHA256 - SHA-256 input data was malformed\000"
	.align	2
.LC226:
	.ascii	"SHA3 - SHA-3 input data was malformed\000"
	.align	2
.LC227:
	.ascii	"SHA512 - SHA-512 input data was malformed\000"
	.align	2
.LC228:
	.ascii	"HKDF - Bad input parameters to function\000"
	.section	.text.mbedtls_low_level_strerr,"ax",%progbits
	.align	1
	.global	mbedtls_low_level_strerr
	.syntax unified
	.thumb
	.thumb_func
	.type	mbedtls_low_level_strerr, %function
mbedtls_low_level_strerr:
.LVL426:
.LFB101:
	.loc 1 538 1 is_stmt 1 view -0
	.cfi_startproc
	@ args = 0, pretend = 0, frame = 0
	@ frame_needed = 0, uses_anonymous_args = 0
	@ link register save eliminated.
	.loc 1 539 5 view .LVU497
	.loc 1 541 5 view .LVU498
	.loc 1 541 8 is_stmt 0 view .LVU499
	cmp	r0, #0
	.loc 1 541 8 view .LVU500
	blt	.L368
.L286:
	.loc 1 546 5 is_stmt 1 view .LVU501
	.loc 1 546 26 is_stmt 0 view .LVU502
	bic	r0, r0, #65280
.LVL427:
	.loc 1 546 26 view .LVU503
	bic	r0, r0, #128
.LVL428:
	.loc 1 548 5 is_stmt 1 view .LVU504
	cmp	r0, #118
	bgt	.L287
	cmp	r0, #0
	ble	.L365
	subs	r0, r0, #1
.LVL429:
	.loc 1 548 5 is_stmt 0 view .LVU505
	cmp	r0, #117
	bhi	.L289
	tbh	[pc, r0, lsl #1]
.L291:
	.2byte	(.L364-.L291)/2
	.2byte	(.L363-.L291)/2
	.2byte	(.L362-.L291)/2
	.2byte	(.L361-.L291)/2
	.2byte	(.L360-.L291)/2
	.2byte	(.L359-.L291)/2
	.2byte	(.L358-.L291)/2
	.2byte	(.L357-.L291)/2
	.2byte	(.L356-.L291)/2
	.2byte	(.L355-.L291)/2
	.2byte	(.L354-.L291)/2
	.2byte	(.L353-.L291)/2
	.2byte	(.L352-.L291)/2
	.2byte	(.L351-.L291)/2
	.2byte	(.L350-.L291)/2
	.2byte	(.L349-.L291)/2
	.2byte	(.L348-.L291)/2
	.2byte	(.L347-.L291)/2
	.2byte	(.L346-.L291)/2
	.2byte	(.L345-.L291)/2
	.2byte	(.L344-.L291)/2
	.2byte	(.L343-.L291)/2
	.2byte	(.L342-.L291)/2
	.2byte	(.L289-.L291)/2
	.2byte	(.L341-.L291)/2
	.2byte	(.L289-.L291)/2
	.2byte	(.L289-.L291)/2
	.2byte	(.L289-.L291)/2
	.2byte	(.L289-.L291)/2
	.2byte	(.L289-.L291)/2
	.2byte	(.L289-.L291)/2
	.2byte	(.L340-.L291)/2
	.2byte	(.L339-.L291)/2
	.2byte	(.L366-.L291)/2
	.2byte	(.L289-.L291)/2
	.2byte	(.L338-.L291)/2
	.2byte	(.L289-.L291)/2
	.2byte	(.L337-.L291)/2
	.2byte	(.L289-.L291)/2
	.2byte	(.L289-.L291)/2
	.2byte	(.L289-.L291)/2
	.2byte	(.L336-.L291)/2
	.2byte	(.L289-.L291)/2
	.2byte	(.L335-.L291)/2
	.2byte	(.L289-.L291)/2
	.2byte	(.L334-.L291)/2
	.2byte	(.L289-.L291)/2
	.2byte	(.L289-.L291)/2
	.2byte	(.L289-.L291)/2
	.2byte	(.L333-.L291)/2
	.2byte	(.L289-.L291)/2
	.2byte	(.L332-.L291)/2
	.2byte	(.L289-.L291)/2
	.2byte	(.L331-.L291)/2
	.2byte	(.L289-.L291)/2
	.2byte	(.L330-.L291)/2
	.2byte	(.L289-.L291)/2
	.2byte	(.L329-.L291)/2
	.2byte	(.L289-.L291)/2
	.2byte	(.L328-.L291)/2
	.2byte	(.L327-.L291)/2
	.2byte	(.L326-.L291)/2
	.2byte	(.L325-.L291)/2
	.2byte	(.L324-.L291)/2
	.2byte	(.L289-.L291)/2
	.2byte	(.L323-.L291)/2
	.2byte	(.L322-.L291)/2
	.2byte	(.L321-.L291)/2
	.2byte	(.L320-.L291)/2
	.2byte	(.L319-.L291)/2
	.2byte	(.L318-.L291)/2
	.2byte	(.L317-.L291)/2
	.2byte	(.L316-.L291)/2
	.2byte	(.L315-.L291)/2
	.2byte	(.L289-.L291)/2
	.2byte	(.L314-.L291)/2
	.2byte	(.L289-.L291)/2
	.2byte	(.L313-.L291)/2
	.2byte	(.L289-.L291)/2
	.2byte	(.L312-.L291)/2
	.2byte	(.L311-.L291)/2
	.2byte	(.L310-.L291)/2
	.2byte	(.L289-.L291)/2
	.2byte	(.L309-.L291)/2
	.2byte	(.L289-.L291)/2
	.2byte	(.L308-.L291)/2
	.2byte	(.L307-.L291)/2
	.2byte	(.L289-.L291)/2
	.2byte	(.L289-.L291)/2
	.2byte	(.L289-.L291)/2
	.2byte	(.L289-.L291)/2
	.2byte	(.L306-.L291)/2
	.2byte	(.L289-.L291)/2
	.2byte	(.L305-.L291)/2
	.2byte	(.L289-.L291)/2
	.2byte	(.L304-.L291)/2
	.2byte	(.L289-.L291)/2
	.2byte	(.L303-.L291)/2
	.2byte	(.L289-.L291)/2
	.2byte	(.L302-.L291)/2
	.2byte	(.L289-.L291)/2
	.2byte	(.L301-.L291)/2
	.2byte	(.L289-.L291)/2
	.2byte	(.L300-.L291)/2
	.2byte	(.L289-.L291)/2
	.2byte	(.L299-.L291)/2
	.2byte	(.L289-.L291)/2
	.2byte	(.L298-.L291)/2
	.2byte	(.L289-.L291)/2
	.2byte	(.L297-.L291)/2
	.2byte	(.L289-.L291)/2
	.2byte	(.L296-.L291)/2
	.2byte	(.L289-.L291)/2
	.2byte	(.L295-.L291)/2
	.2byte	(.L294-.L291)/2
	.2byte	(.L293-.L291)/2
	.2byte	(.L292-.L291)/2
	.2byte	(.L290-.L291)/2
.LVL430:
	.p2align 1
.L368:
	.loc 1 542 9 is_stmt 1 view .LVU506
	.loc 1 542 20 is_stmt 0 view .LVU507
	rsbs	r0, r0, #0
.LVL431:
	.loc 1 542 20 view .LVU508
	b	.L286
.LVL432:
.L340:
	.loc 1 548 5 view .LVU509
	ldr	r0, .L369
.LVL433:
	.loc 1 548 5 view .LVU510
	bx	lr
.LVL434:
.L289:
	.loc 1 789 11 view .LVU511
	movs	r0, #0
.LVL435:
	.loc 1 789 11 view .LVU512
	bx	lr
.LVL436:
.L287:
	.loc 1 548 5 view .LVU513
	cmp	r0, #24448
	bne	.L367
	.loc 1 689 19 view .LVU514
	ldr	r0, .L369+4
.LVL437:
	.loc 1 689 19 view .LVU515
	bx	lr
.LVL438:
.L339:
	.loc 1 556 13 is_stmt 1 view .LVU516
	.loc 1 556 19 is_stmt 0 view .LVU517
	ldr	r0, .L369+8
.LVL439:
	.loc 1 556 19 view .LVU518
	bx	lr
.LVL440:
.L306:
	.loc 1 561 13 is_stmt 1 view .LVU519
	.loc 1 561 19 is_stmt 0 view .LVU520
	ldr	r0, .L369+12
.LVL441:
	.loc 1 561 19 view .LVU521
	bx	lr
.LVL442:
.L305:
	.loc 1 563 13 is_stmt 1 view .LVU522
	.loc 1 563 19 is_stmt 0 view .LVU523
	ldr	r0, .L369+16
.LVL443:
	.loc 1 563 19 view .LVU524
	bx	lr
.LVL444:
.L304:
	.loc 1 568 13 is_stmt 1 view .LVU525
	.loc 1 568 19 is_stmt 0 view .LVU526
	ldr	r0, .L369+20
.LVL445:
	.loc 1 568 19 view .LVU527
	bx	lr
.LVL446:
.L303:
	.loc 1 570 13 is_stmt 1 view .LVU528
	.loc 1 570 19 is_stmt 0 view .LVU529
	ldr	r0, .L369+24
.LVL447:
	.loc 1 570 19 view .LVU530
	bx	lr
.LVL448:
.L302:
	.loc 1 572 13 is_stmt 1 view .LVU531
	.loc 1 572 19 is_stmt 0 view .LVU532
	ldr	r0, .L369+28
.LVL449:
	.loc 1 572 19 view .LVU533
	bx	lr
.LVL450:
.L301:
	.loc 1 574 13 is_stmt 1 view .LVU534
	.loc 1 574 19 is_stmt 0 view .LVU535
	ldr	r0, .L369+32
.LVL451:
	.loc 1 574 19 view .LVU536
	bx	lr
.LVL452:
.L300:
	.loc 1 576 13 is_stmt 1 view .LVU537
	.loc 1 576 19 is_stmt 0 view .LVU538
	ldr	r0, .L369+36
.LVL453:
	.loc 1 576 19 view .LVU539
	bx	lr
.LVL454:
.L299:
	.loc 1 578 13 is_stmt 1 view .LVU540
	.loc 1 578 19 is_stmt 0 view .LVU541
	ldr	r0, .L369+40
.LVL455:
	.loc 1 578 19 view .LVU542
	bx	lr
.LVL456:
.L298:
	.loc 1 580 13 is_stmt 1 view .LVU543
	.loc 1 580 19 is_stmt 0 view .LVU544
	ldr	r0, .L369+44
.LVL457:
	.loc 1 580 19 view .LVU545
	bx	lr
.LVL458:
.L336:
	.loc 1 585 13 is_stmt 1 view .LVU546
	.loc 1 585 19 is_stmt 0 view .LVU547
	ldr	r0, .L369+48
.LVL459:
	.loc 1 585 19 view .LVU548
	bx	lr
.LVL460:
.L335:
	.loc 1 587 13 is_stmt 1 view .LVU549
	.loc 1 587 19 is_stmt 0 view .LVU550
	ldr	r0, .L369+52
.LVL461:
	.loc 1 587 19 view .LVU551
	bx	lr
.LVL462:
.L363:
	.loc 1 592 13 is_stmt 1 view .LVU552
	.loc 1 592 19 is_stmt 0 view .LVU553
	ldr	r0, .L369+56
.LVL463:
	.loc 1 592 19 view .LVU554
	bx	lr
.LVL464:
.L361:
	.loc 1 594 13 is_stmt 1 view .LVU555
	.loc 1 594 19 is_stmt 0 view .LVU556
	ldr	r0, .L369+60
.LVL465:
	.loc 1 594 19 view .LVU557
	bx	lr
.LVL466:
.L359:
	.loc 1 596 13 is_stmt 1 view .LVU558
	.loc 1 596 19 is_stmt 0 view .LVU559
	ldr	r0, .L369+64
.LVL467:
	.loc 1 596 19 view .LVU560
	bx	lr
.LVL468:
.L357:
	.loc 1 598 13 is_stmt 1 view .LVU561
	.loc 1 598 19 is_stmt 0 view .LVU562
	ldr	r0, .L369+68
.LVL469:
	.loc 1 598 19 view .LVU563
	bx	lr
.LVL470:
.L355:
	.loc 1 600 13 is_stmt 1 view .LVU564
	.loc 1 600 19 is_stmt 0 view .LVU565
	ldr	r0, .L369+72
.LVL471:
	.loc 1 600 19 view .LVU566
	bx	lr
.LVL472:
.L353:
	.loc 1 602 13 is_stmt 1 view .LVU567
	.loc 1 602 19 is_stmt 0 view .LVU568
	ldr	r0, .L369+76
.LVL473:
	.loc 1 602 19 view .LVU569
	bx	lr
.LVL474:
.L351:
	.loc 1 604 13 is_stmt 1 view .LVU570
	.loc 1 604 19 is_stmt 0 view .LVU571
	ldr	r0, .L369+80
.LVL475:
	.loc 1 604 19 view .LVU572
	bx	lr
.LVL476:
.L349:
	.loc 1 606 13 is_stmt 1 view .LVU573
	.loc 1 606 19 is_stmt 0 view .LVU574
	ldr	r0, .L369+84
.LVL477:
	.loc 1 606 19 view .LVU575
	bx	lr
.LVL478:
.L338:
	.loc 1 611 13 is_stmt 1 view .LVU576
	.loc 1 611 19 is_stmt 0 view .LVU577
	ldr	r0, .L369+88
.LVL479:
	.loc 1 611 19 view .LVU578
	bx	lr
.LVL480:
.L337:
	.loc 1 613 13 is_stmt 1 view .LVU579
	.loc 1 613 19 is_stmt 0 view .LVU580
	ldr	r0, .L369+92
.LVL481:
	.loc 1 613 19 view .LVU581
	bx	lr
.LVL482:
.L352:
	.loc 1 618 13 is_stmt 1 view .LVU582
	.loc 1 618 19 is_stmt 0 view .LVU583
	ldr	r0, .L369+96
.LVL483:
	.loc 1 618 19 view .LVU584
	bx	lr
.LVL484:
.L350:
	.loc 1 620 13 is_stmt 1 view .LVU585
	.loc 1 620 19 is_stmt 0 view .LVU586
	ldr	r0, .L369+100
.LVL485:
	.loc 1 620 19 view .LVU587
	bx	lr
.LVL486:
.L311:
	.loc 1 625 13 is_stmt 1 view .LVU588
	.loc 1 625 19 is_stmt 0 view .LVU589
	ldr	r0, .L369+104
.LVL487:
	.loc 1 625 19 view .LVU590
	bx	lr
.LVL488:
.L309:
	.loc 1 630 13 is_stmt 1 view .LVU591
	.loc 1 630 19 is_stmt 0 view .LVU592
	ldr	r0, .L369+108
.LVL489:
	.loc 1 630 19 view .LVU593
	bx	lr
.LVL490:
.L308:
	.loc 1 632 13 is_stmt 1 view .LVU594
	.loc 1 632 19 is_stmt 0 view .LVU595
	ldr	r0, .L369+112
.LVL491:
	.loc 1 632 19 view .LVU596
	bx	lr
.LVL492:
.L332:
	.loc 1 637 13 is_stmt 1 view .LVU597
	.loc 1 637 19 is_stmt 0 view .LVU598
	ldr	r0, .L369+116
.LVL493:
	.loc 1 637 19 view .LVU599
	bx	lr
.LVL494:
.L331:
	.loc 1 639 13 is_stmt 1 view .LVU600
	.loc 1 639 19 is_stmt 0 view .LVU601
	ldr	r0, .L369+120
.LVL495:
	.loc 1 639 19 view .LVU602
	bx	lr
.LVL496:
.L330:
	.loc 1 641 13 is_stmt 1 view .LVU603
	.loc 1 641 19 is_stmt 0 view .LVU604
	ldr	r0, .L369+124
.LVL497:
	.loc 1 641 19 view .LVU605
	bx	lr
.LVL498:
.L329:
	.loc 1 643 13 is_stmt 1 view .LVU606
	.loc 1 643 19 is_stmt 0 view .LVU607
	ldr	r0, .L369+128
.LVL499:
	.loc 1 643 19 view .LVU608
	bx	lr
.LVL500:
.L333:
	.loc 1 648 13 is_stmt 1 view .LVU609
	.loc 1 648 19 is_stmt 0 view .LVU610
	ldr	r0, .L369+132
.LVL501:
	.loc 1 648 19 view .LVU611
	bx	lr
.LVL502:
.L328:
	.loc 1 653 13 is_stmt 1 view .LVU612
	.loc 1 653 19 is_stmt 0 view .LVU613
	ldr	r0, .L369+136
.LVL503:
	.loc 1 653 19 view .LVU614
	bx	lr
.LVL504:
.L326:
	.loc 1 655 13 is_stmt 1 view .LVU615
	.loc 1 655 19 is_stmt 0 view .LVU616
	ldr	r0, .L369+140
.LVL505:
	.loc 1 655 19 view .LVU617
	bx	lr
.LVL506:
.L324:
	.loc 1 657 13 is_stmt 1 view .LVU618
	.loc 1 657 19 is_stmt 0 view .LVU619
	ldr	r0, .L369+144
.LVL507:
	.loc 1 657 19 view .LVU620
	bx	lr
.LVL508:
.L327:
	.loc 1 659 13 is_stmt 1 view .LVU621
	.loc 1 659 19 is_stmt 0 view .LVU622
	ldr	r0, .L369+148
.LVL509:
	.loc 1 659 19 view .LVU623
	bx	lr
.LVL510:
.L325:
	.loc 1 661 13 is_stmt 1 view .LVU624
	.loc 1 661 19 is_stmt 0 view .LVU625
	ldr	r0, .L369+152
.LVL511:
	.loc 1 661 19 view .LVU626
	bx	lr
.LVL512:
.L364:
	.loc 1 666 13 is_stmt 1 view .LVU627
	.loc 1 666 19 is_stmt 0 view .LVU628
	ldr	r0, .L369+156
.LVL513:
	.loc 1 666 19 view .LVU629
	bx	lr
.LVL514:
.L297:
	.loc 1 668 13 is_stmt 1 view .LVU630
	.loc 1 668 19 is_stmt 0 view .LVU631
	ldr	r0, .L369+160
.LVL515:
	.loc 1 668 19 view .LVU632
	bx	lr
.LVL516:
.L296:
	.loc 1 673 13 is_stmt 1 view .LVU633
	.loc 1 673 19 is_stmt 0 view .LVU634
	ldr	r0, .L369+164
.LVL517:
	.loc 1 673 19 view .LVU635
	bx	lr
.LVL518:
.L295:
	.loc 1 675 13 is_stmt 1 view .LVU636
	.loc 1 675 19 is_stmt 0 view .LVU637
	ldr	r0, .L369+168
.LVL519:
	.loc 1 675 19 view .LVU638
	bx	lr
.LVL520:
.L347:
	.loc 1 680 13 is_stmt 1 view .LVU639
	.loc 1 680 19 is_stmt 0 view .LVU640
	ldr	r0, .L369+172
.LVL521:
	.loc 1 680 19 view .LVU641
	bx	lr
.LVL522:
.L345:
	.loc 1 682 13 is_stmt 1 view .LVU642
	.loc 1 682 19 is_stmt 0 view .LVU643
	ldr	r0, .L369+176
.LVL523:
	.loc 1 682 19 view .LVU644
	bx	lr
.LVL524:
.L343:
	.loc 1 684 13 is_stmt 1 view .LVU645
	.loc 1 684 19 is_stmt 0 view .LVU646
	ldr	r0, .L369+180
.LVL525:
	.loc 1 684 19 view .LVU647
	bx	lr
.LVL526:
.L362:
	.loc 1 694 13 is_stmt 1 view .LVU648
	.loc 1 694 19 is_stmt 0 view .LVU649
	ldr	r0, .L369+184
.LVL527:
	.loc 1 694 19 view .LVU650
	bx	lr
.LVL528:
.L360:
	.loc 1 696 13 is_stmt 1 view .LVU651
	.loc 1 696 19 is_stmt 0 view .LVU652
	ldr	r0, .L369+188
.LVL529:
	.loc 1 696 19 view .LVU653
	bx	lr
.LVL530:
.L358:
	.loc 1 698 13 is_stmt 1 view .LVU654
	.loc 1 698 19 is_stmt 0 view .LVU655
	ldr	r0, .L369+192
.LVL531:
	.loc 1 698 19 view .LVU656
	bx	lr
.LVL532:
.L356:
	.loc 1 700 13 is_stmt 1 view .LVU657
	.loc 1 700 19 is_stmt 0 view .LVU658
	ldr	r0, .L369+196
.LVL533:
	.loc 1 700 19 view .LVU659
	bx	lr
.LVL534:
.L348:
	.loc 1 705 13 is_stmt 1 view .LVU660
	.loc 1 705 19 is_stmt 0 view .LVU661
	ldr	r0, .L369+200
.LVL535:
	.loc 1 705 19 view .LVU662
	bx	lr
.LVL536:
.L346:
	.loc 1 707 13 is_stmt 1 view .LVU663
	.loc 1 707 19 is_stmt 0 view .LVU664
	ldr	r0, .L369+204
.LVL537:
	.loc 1 707 19 view .LVU665
	bx	lr
.LVL538:
.L344:
	.loc 1 709 13 is_stmt 1 view .LVU666
	.loc 1 709 19 is_stmt 0 view .LVU667
	ldr	r0, .L369+208
.LVL539:
	.loc 1 709 19 view .LVU668
	bx	lr
.LVL540:
.L342:
	.loc 1 711 13 is_stmt 1 view .LVU669
	.loc 1 711 19 is_stmt 0 view .LVU670
	ldr	r0, .L369+212
.LVL541:
	.loc 1 711 19 view .LVU671
	bx	lr
.LVL542:
.L341:
	.loc 1 713 13 is_stmt 1 view .LVU672
	.loc 1 713 19 is_stmt 0 view .LVU673
	ldr	r0, .L369+216
.LVL543:
	.loc 1 713 19 view .LVU674
	bx	lr
.LVL544:
.L323:
	.loc 1 718 13 is_stmt 1 view .LVU675
	.loc 1 718 19 is_stmt 0 view .LVU676
	ldr	r0, .L369+220
.LVL545:
	.loc 1 718 19 view .LVU677
	bx	lr
.LVL546:
.L321:
	.loc 1 720 13 is_stmt 1 view .LVU678
	.loc 1 720 19 is_stmt 0 view .LVU679
	ldr	r0, .L369+224
.LVL547:
	.loc 1 720 19 view .LVU680
	bx	lr
.LVL548:
.L319:
	.loc 1 722 13 is_stmt 1 view .LVU681
	.loc 1 722 19 is_stmt 0 view .LVU682
	ldr	r0, .L369+228
.LVL549:
	.loc 1 722 19 view .LVU683
	bx	lr
.LVL550:
.L317:
	.loc 1 724 13 is_stmt 1 view .LVU684
	.loc 1 724 19 is_stmt 0 view .LVU685
	ldr	r0, .L369+232
.LVL551:
	.loc 1 724 19 view .LVU686
	bx	lr
.LVL552:
.L315:
	.loc 1 726 13 is_stmt 1 view .LVU687
	.loc 1 726 19 is_stmt 0 view .LVU688
	ldr	r0, .L369+236
.LVL553:
	.loc 1 726 19 view .LVU689
	bx	lr
.LVL554:
.L314:
	.loc 1 728 13 is_stmt 1 view .LVU690
	.loc 1 728 19 is_stmt 0 view .LVU691
	ldr	r0, .L369+240
.LVL555:
	.loc 1 728 19 view .LVU692
	bx	lr
.LVL556:
.L313:
	.loc 1 730 13 is_stmt 1 view .LVU693
	.loc 1 730 19 is_stmt 0 view .LVU694
	ldr	r0, .L369+244
.LVL557:
	.loc 1 730 19 view .LVU695
	bx	lr
.LVL558:
.L312:
	.loc 1 732 13 is_stmt 1 view .LVU696
	.loc 1 732 19 is_stmt 0 view .LVU697
	ldr	r0, .L369+248
.LVL559:
	.loc 1 732 19 view .LVU698
	bx	lr
.LVL560:
.L310:
	.loc 1 734 13 is_stmt 1 view .LVU699
	.loc 1 734 19 is_stmt 0 view .LVU700
	ldr	r0, .L369+252
.LVL561:
	.loc 1 734 19 view .LVU701
	bx	lr
.LVL562:
.L322:
	.loc 1 736 13 is_stmt 1 view .LVU702
	.loc 1 736 19 is_stmt 0 view .LVU703
	ldr	r0, .L369+256
.LVL563:
	.loc 1 736 19 view .LVU704
	bx	lr
.LVL564:
.L320:
	.loc 1 738 13 is_stmt 1 view .LVU705
	.loc 1 738 19 is_stmt 0 view .LVU706
	ldr	r0, .L369+260
.LVL565:
	.loc 1 738 19 view .LVU707
	bx	lr
.LVL566:
.L318:
	.loc 1 740 13 is_stmt 1 view .LVU708
	.loc 1 740 19 is_stmt 0 view .LVU709
	ldr	r0, .L369+264
.LVL567:
	.loc 1 740 19 view .LVU710
	bx	lr
.LVL568:
.L316:
	.loc 1 742 13 is_stmt 1 view .LVU711
	.loc 1 742 19 is_stmt 0 view .LVU712
	ldr	r0, .L369+268
.LVL569:
	.loc 1 742 19 view .LVU713
	bx	lr
.LVL570:
.L334:
	.loc 1 747 13 is_stmt 1 view .LVU714
	.loc 1 747 19 is_stmt 0 view .LVU715
	ldr	r0, .L369+272
.LVL571:
	.loc 1 747 19 view .LVU716
	bx	lr
.LVL572:
.L354:
	.loc 1 749 13 is_stmt 1 view .LVU717
	.loc 1 749 19 is_stmt 0 view .LVU718
	ldr	r0, .L369+276
.LVL573:
	.loc 1 749 19 view .LVU719
	bx	lr
.LVL574:
.L307:
	.loc 1 754 13 is_stmt 1 view .LVU720
	.loc 1 754 19 is_stmt 0 view .LVU721
	ldr	r0, .L369+280
.LVL575:
	.loc 1 754 19 view .LVU722
	bx	lr
.LVL576:
.L294:
	.loc 1 759 13 is_stmt 1 view .LVU723
	.loc 1 759 19 is_stmt 0 view .LVU724
	ldr	r0, .L369+284
.LVL577:
	.loc 1 759 19 view .LVU725
	bx	lr
.LVL578:
.L293:
	.loc 1 764 13 is_stmt 1 view .LVU726
	.loc 1 764 19 is_stmt 0 view .LVU727
	ldr	r0, .L369+288
.LVL579:
	.loc 1 764 19 view .LVU728
	bx	lr
.LVL580:
.L290:
	.loc 1 769 13 is_stmt 1 view .LVU729
	.loc 1 769 19 is_stmt 0 view .LVU730
	ldr	r0, .L369+292
.LVL581:
	.loc 1 769 19 view .LVU731
	bx	lr
.LVL582:
.L292:
	.loc 1 774 13 is_stmt 1 view .LVU732
	.loc 1 774 19 is_stmt 0 view .LVU733
	ldr	r0, .L369+296
.LVL583:
	.loc 1 774 19 view .LVU734
	bx	lr
.LVL584:
.L365:
	.loc 1 789 11 view .LVU735
	movs	r0, #0
.LVL585:
	.loc 1 789 11 view .LVU736
	bx	lr
.LVL586:
.L366:
	.loc 1 554 19 view .LVU737
	ldr	r0, .L369+300
.LVL587:
	.loc 1 554 19 view .LVU738
	bx	lr
.LVL588:
.L367:
	.loc 1 789 11 view .LVU739
	movs	r0, #0
.LVL589:
	.loc 1 790 1 view .LVU740
	bx	lr
.L370:
	.align	2
.L369:
	.word	.LC198
	.word	.LC228
	.word	.LC154
	.word	.LC155
	.word	.LC156
	.word	.LC157
	.word	.LC158
	.word	.LC159
	.word	.LC160
	.word	.LC161
	.word	.LC162
	.word	.LC163
	.word	.LC164
	.word	.LC165
	.word	.LC166
	.word	.LC167
	.word	.LC168
	.word	.LC169
	.word	.LC170
	.word	.LC171
	.word	.LC172
	.word	.LC173
	.word	.LC174
	.word	.LC175
	.word	.LC176
	.word	.LC177
	.word	.LC178
	.word	.LC179
	.word	.LC180
	.word	.LC181
	.word	.LC182
	.word	.LC183
	.word	.LC184
	.word	.LC185
	.word	.LC186
	.word	.LC187
	.word	.LC188
	.word	.LC189
	.word	.LC190
	.word	.LC191
	.word	.LC192
	.word	.LC193
	.word	.LC194
	.word	.LC195
	.word	.LC196
	.word	.LC197
	.word	.LC199
	.word	.LC200
	.word	.LC201
	.word	.LC202
	.word	.LC203
	.word	.LC204
	.word	.LC205
	.word	.LC206
	.word	.LC207
	.word	.LC208
	.word	.LC209
	.word	.LC210
	.word	.LC211
	.word	.LC212
	.word	.LC213
	.word	.LC214
	.word	.LC215
	.word	.LC216
	.word	.LC217
	.word	.LC218
	.word	.LC219
	.word	.LC220
	.word	.LC221
	.word	.LC222
	.word	.LC223
	.word	.LC224
	.word	.LC225
	.word	.LC226
	.word	.LC227
	.word	.LC153
	.cfi_endproc
.LFE101:
	.size	mbedtls_low_level_strerr, .-mbedtls_low_level_strerr
	.section	.rodata.mbedtls_strerror.str1.4,"aMS",%progbits,1
	.align	2
.LC229:
	.ascii	"UNKNOWN ERROR CODE (%04X)\000"
	.align	2
.LC230:
	.ascii	"%s\000"
	.align	2
.LC231:
	.ascii	" : \000"
	.section	.text.mbedtls_strerror,"ax",%progbits
	.align	1
	.global	mbedtls_strerror
	.syntax unified
	.thumb
	.thumb_func
	.type	mbedtls_strerror, %function
mbedtls_strerror:
.LVL590:
.LFB102:
	.loc 1 793 1 is_stmt 1 view -0
	.cfi_startproc
	@ args = 0, pretend = 0, frame = 0
	@ frame_needed = 0, uses_anonymous_args = 0
	.loc 1 793 1 is_stmt 0 view .LVU742
	push	{r4, r5, r6, r7, r8, lr}
	.cfi_def_cfa_offset 24
	.cfi_offset 4, -24
	.cfi_offset 5, -20
	.cfi_offset 6, -16
	.cfi_offset 7, -12
	.cfi_offset 8, -8
	.cfi_offset 14, -4
	mov	r4, r0
	mov	r5, r1
	.loc 1 794 5 is_stmt 1 view .LVU743
	.loc 1 795 5 view .LVU744
	.loc 1 796 5 view .LVU745
.LVL591:
	.loc 1 797 5 view .LVU746
	.loc 1 799 5 view .LVU747
	.loc 1 799 8 is_stmt 0 view .LVU748
	mov	r7, r2
	cbnz	r2, .L379
.LVL592:
.L371:
	.loc 1 860 1 view .LVU749
	pop	{r4, r5, r6, r7, r8, pc}
.LVL593:
.L379:
	.loc 1 803 5 is_stmt 1 view .LVU750
	movs	r1, #0
.LVL594:
	.loc 1 803 5 is_stmt 0 view .LVU751
	mov	r0, r5
.LVL595:
	.loc 1 803 5 view .LVU752
	bl	memset
.LVL596:
	.loc 1 805 5 is_stmt 1 view .LVU753
	.loc 1 805 8 is_stmt 0 view .LVU754
	cmp	r4, #0
	blt	.L380
.L373:
	.loc 1 809 5 is_stmt 1 view .LVU755
	.loc 1 809 13 is_stmt 0 view .LVU756
	movw	r3, #65408
	.loc 1 809 8 view .LVU757
	ands	r6, r4, r3
	beq	.L374
	.loc 1 810 9 is_stmt 1 view .LVU758
.LVL597:
	.loc 1 813 9 view .LVU759
	.loc 1 813 40 is_stmt 0 view .LVU760
	mov	r0, r4
	bl	mbedtls_high_level_strerr
.LVL598:
	.loc 1 815 9 is_stmt 1 view .LVU761
	.loc 1 815 12 is_stmt 0 view .LVU762
	mov	r3, r0
	cbz	r0, .L381
.LBB2:
	.loc 1 818 13 is_stmt 1 view .LVU763
	ldr	r2, .L383
	mov	r1, r7
	mov	r0, r5
.LVL599:
	.loc 1 818 13 is_stmt 0 view .LVU764
	bl	MBEDTLS_PLATFORM_STD_SNPRINTF
.LVL600:
.L376:
	.loc 1 818 13 view .LVU765
.LBE2:
	.loc 1 824 9 is_stmt 1 view .LVU766
	.loc 1 824 12 is_stmt 0 view .LVU767
	cmp	r6, #30592
	beq	.L371
.LVL601:
.L374:
	.loc 1 830 5 is_stmt 1 view .LVU768
	.loc 1 830 13 is_stmt 0 view .LVU769
	bic	r6, r4, #65280
	bic	r6, r6, #128
.LVL602:
	.loc 1 832 5 is_stmt 1 view .LVU770
	.loc 1 832 8 is_stmt 0 view .LVU771
	cmp	r6, #0
	beq	.L371
	.loc 1 839 5 is_stmt 1 view .LVU772
	.loc 1 839 11 is_stmt 0 view .LVU773
	mov	r0, r5
	bl	strlen
.LVL603:
	.loc 1 841 5 is_stmt 1 view .LVU774
	.loc 1 841 8 is_stmt 0 view .LVU775
	mov	r8, r0
	cbz	r0, .L377
.LBB3:
	.loc 1 842 9 is_stmt 1 view .LVU776
	.loc 1 842 20 is_stmt 0 view .LVU777
	subs	r7, r7, r0
.LVL604:
	.loc 1 842 12 view .LVU778
	cmp	r7, #4
	bls	.L371
	.loc 1 846 9 is_stmt 1 view .LVU779
	ldr	r2, .L383+4
	mov	r1, r7
	adds	r0, r5, r0
.LVL605:
	.loc 1 846 9 is_stmt 0 view .LVU780
	bl	MBEDTLS_PLATFORM_STD_SNPRINTF
.LVL606:
	.loc 1 848 9 is_stmt 1 view .LVU781
	.loc 1 848 13 is_stmt 0 view .LVU782
	add	r8, r8, #3
.LVL607:
	.loc 1 848 13 view .LVU783
	add	r5, r5, r8
.LVL608:
	.loc 1 849 9 is_stmt 1 view .LVU784
	.loc 1 849 16 is_stmt 0 view .LVU785
	subs	r7, r7, #3
.LVL609:
.L377:
	.loc 1 849 16 view .LVU786
.LBE3:
	.loc 1 853 5 is_stmt 1 view .LVU787
	.loc 1 853 35 is_stmt 0 view .LVU788
	mov	r0, r4
	bl	mbedtls_low_level_strerr
.LVL610:
	.loc 1 855 5 is_stmt 1 view .LVU789
	.loc 1 855 8 is_stmt 0 view .LVU790
	mov	r3, r0
	cbz	r0, .L382
.LBB4:
	.loc 1 858 9 is_stmt 1 view .LVU791
	ldr	r2, .L383
	mov	r1, r7
	mov	r0, r5
.LVL611:
	.loc 1 858 9 is_stmt 0 view .LVU792
	bl	MBEDTLS_PLATFORM_STD_SNPRINTF
.LVL612:
	.loc 1 858 9 view .LVU793
	b	.L371
.LVL613:
.L380:
	.loc 1 858 9 view .LVU794
.LBE4:
	.loc 1 806 9 is_stmt 1 view .LVU795
	.loc 1 806 13 is_stmt 0 view .LVU796
	rsbs	r4, r4, #0
.LVL614:
	.loc 1 806 13 view .LVU797
	b	.L373
.LVL615:
.L381:
.LBB5:
	.loc 1 816 13 is_stmt 1 view .LVU798
	mov	r3, r6
	ldr	r2, .L383+8
	mov	r1, r7
	mov	r0, r5
.LVL616:
	.loc 1 816 13 is_stmt 0 view .LVU799
	bl	MBEDTLS_PLATFORM_STD_SNPRINTF
.LVL617:
.LBE5:
	b	.L376
.LVL618:
.L382:
.LBB6:
	.loc 1 856 9 is_stmt 1 view .LVU800
	mov	r3, r6
	ldr	r2, .L383+8
	mov	r1, r7
	mov	r0, r5
.LVL619:
	.loc 1 856 9 is_stmt 0 view .LVU801
	bl	MBEDTLS_PLATFORM_STD_SNPRINTF
.LVL620:
.LBE6:
	b	.L371
.L384:
	.align	2
.L383:
	.word	.LC230
	.word	.LC231
	.word	.LC229
	.cfi_endproc
.LFE102:
	.size	mbedtls_strerror, .-mbedtls_strerror
	.text
.Letext0:
	.file 2 "/home/araujoj20/eclipse-SDK-4.8-linux-gtk-x86_64/gcc-arm-none-eabi-10.3-2021.10-x86_64-linux/gcc-arm-none-eabi-10.3-2021.10/arm-none-eabi/include/string.h"
	.file 3 "/home/araujoj20/eclipse-SDK-4.8-linux-gtk-x86_64/gcc-arm-none-eabi-10.3-2021.10-x86_64-linux/gcc-arm-none-eabi-10.3-2021.10/lib/gcc/arm-none-eabi/10.3.1/include/stddef.h"